******************************************************************************
                  TI ARM Linker PC v18.1.1                     
******************************************************************************
>> Linked Thu May 17 21:25:43 2018

OUTPUT FILE NAME:   <spiloopback_MSP_EXP432P401R_TI.out>
ENTRY POINT SYMBOL: "_c_int00"  address: 0000630d


MEMORY CONFIGURATION

         name            origin    length      used     unused   attr    fill
----------------------  --------  ---------  --------  --------  ----  --------
  MAIN                  00000000   00040000  0000bf36  000340ca  R  X
  INFO                  00200000   00004000  00000000  00004000  R  X
  SRAM_CODE             01000000   00010000  00000000  00010000  RW X
  SRAM_DATA             20000000   00010000  0000303a  0000cfc6  RW  


SEGMENT ALLOCATION MAP

run origin  load origin   length   init length attrs members
----------  ----------- ---------- ----------- ----- -------
00000000    00000000    0000bf40   0000bf40    r-x
  00000000    00000000    0000003c   0000003c    r-- .resetVecs
  00000040    00000040    00009062   00009062    r-x .text
  000090a4    000090a4    00002b20   00002b20    r-- .const
  0000bbc8    0000bbc8    00000378   00000378    r-- .cinit
20000000    20000000    00000140   00000000    rw-
  20000000    20000000    00000140   00000000    rw- .vecs
20000200    20000200    00002bfa   00000000    rw-
  20000200    20000200    000022b0   00000000    rw- .bss
  200024b0    200024b0    0000094a   00000000    rw- .data
2000fd00    2000fd00    00000300   00000000    rw-
  2000fd00    2000fd00    00000300   00000000    rw- .stack


SECTION ALLOCATION MAP

 output                                  attributes/
section   page    origin      length       input sections
--------  ----  ----------  ----------   ----------------
.text      0    00000040    00009062     
                  00000040    00000430     sysbios.aem4f : BIOS.obj (.text:ti_sysbios_family_arm_m3_Hwi_excDumpRegs__I)
                  00000470    0000034c     ti.targets.arm.rtsarm.aem4f : System.oem4f (.text:xdc_runtime_System_doPrint__I)
                  000007bc    00000004     msp432p4xx_driverlib.lib : cpu.o (.text:CPU_wfi)
                  000007c0    000002ec     sysbios.aem4f : BIOS.obj (.text:ti_sysbios_knl_Semaphore_pend__E)
                  00000aac    00000004     msp432p4xx_driverlib.lib : spi.o (.text:EUSCI_A_SPI_getReceiveBufferAddressForDMA)
                  00000ab0    0000026c     sysbios.aem4f : BIOS.obj (.text:ti_sysbios_heaps_HeapMem_free__E)
                  00000d1c    00000264     drivers_MSP432P401R.aem4f : PowerMSP432.oem4f (.text:Power_sleep)
                  00000f80    00000260                               : UARTMSP432.oem4f (.text:UARTMSP432_open)
                  000011e0    00000250     sysbios.aem4f : BIOS.obj (.text:ti_sysbios_heaps_HeapMem_alloc__E)
                  00001430    000001fc                   : BIOS.obj (.text:ti_sysbios_family_arm_m3_Hwi_excHandlerMax__I)
                  0000162c    000001a8     MSP432_UART_TX.obj (.text:UART_packet_format)
                  000017d4    000001a0     msp432p4xx_driverlib.lib : pcm.o (.text:__PCM_setPowerStateAdvanced)
                  00001974    0000017c     drivers_MSP432P401R.aem4f : SPIMSP432DMA.oem4f (.text:SPIMSP432DMA_open)
                  00001af0    00000174     sysbios.aem4f : BIOS.obj (.text:ti_sysbios_family_arm_m3_Hwi_excBusFault__I)
                  00001c64    00000004     msp432p4xx_driverlib.lib : spi.o (.text:EUSCI_A_SPI_getTransmitBufferAddressForDMA)
                  00001c68    00000164     sysbios.aem4f : BIOS.obj (.text:ti_sysbios_family_arm_m3_Hwi_excUsageFault__I)
                  00001dcc    00000004     msp432p4xx_driverlib.lib : spi.o (.text:EUSCI_B_SPI_getReceiveBufferAddressForDMA)
                  00001dd0    00000148     sysbios.aem4f : BIOS.obj (.text:ti_sysbios_family_arm_m3_Hwi_excMemFault__I)
                  00001f18    00000140     drivers_MSP432P401R.aem4f : GPIOMSP432.oem4f (.text:GPIO_setConfig)
                  00002058    00000140     sysbios.aem4f : BIOS.obj (.text:ti_sysbios_knl_Semaphore_post__E)
                  00002198    0000013c                   : BIOS.obj (.text:ti_sysbios_heaps_HeapMem_Instance_init__E)
                  000022d4    00000004     msp432p4xx_driverlib.lib : spi.o (.text:EUSCI_B_SPI_getTransmitBufferAddressForDMA)
                  000022d8    0000013c     sysbios.aem4f : BIOS.obj (.text:ti_sysbios_knl_Clock_workFunc__E)
                  00002414    00000004     tirtosport.aem4f : HwiP_tirtos.oem4f (.text:HwiP_disable)
                  00002418    00000138     sysbios.aem4f : BIOS.obj (.text:ti_sysbios_family_arm_m3_Hwi_dispatchC__I)
                  00002550    00000138     spiloopback_pem4f.oem4f (.text:ti_uia_loggers_LoggerStopMode_writeMemoryRange__E)
                  00002688    0000011c     sysbios.aem4f : BIOS.obj (.text:ti_sysbios_knl_Clock_Instance_init__E)
                  000027a4    00000004     drivers_MSP432P401R.aem4f : List.oem4f (.text:List_head)
                  000027a8    0000011c     sysbios.aem4f : BIOS.obj (.text:ti_sysbios_knl_Swi_run__I)
                  000028c4    00000118     ti.targets.arm.rtsarm.aem4f : Error.oem4f (.text:xdc_runtime_Error_policyDefault__E)
                  000029dc    0000010c     spiloopback_pem4f.oem4f (.text:ti_uia_loggers_LoggerStopMode_write8__E)
                  00002ae8    00000100     MSP432_SPI.obj (.text:SPI_read)
                  00002be8    00000100     ti.targets.arm.rtsarm.aem4f : Core-mem.oem4f (.text:xdc_runtime_Core_createObject__I)
                  00002ce8    000000f8                                 : Startup.oem4f (.text:xdc_runtime_Startup_startMods__I)
                  00002de0    000000f8     spiloopback_pem4f.oem4f (.text:xdc_runtime_System_printfExtend__I)
                  00002ed8    000000f4     spiloopback_pem4f.oem4f (.text:ti_uia_loggers_LoggerStopMode_write4__E)
                  00002fcc    000000f0     drivers_MSP432P401R.aem4f : PowerMSP432.oem4f (.text:initPerfControl)
                  000030bc    000000ec     sysbios.aem4f : m3_Hwi_asm.obj (.text:ti_sysbios_family_arm_m3_Hwi_dispatch__I)
                  000031a8    000000e8     spiloopback_pem4f.oem4f (.text:ti_uia_loggers_LoggerStopMode_write1__E)
                  00003290    000000e8     spiloopback_pem4f.oem4f (.text:ti_uia_loggers_LoggerStopMode_write2__E)
                  00003378    000000e0     msp432p4xx_driverlib.lib : cs.o (.text:CS_initClockSignal)
                  00003458    000000dc                              : pcm.o (.text:__PCM_setPowerModeAdvanced)
                  00003534    000000dc     rtsv7M4_T_le_v4SPD16_eabi.lib : setvbuf.c.obj (.text:setvbuf)
                  00003610    000000d8     spiloopback_pem4f.oem4f (.text:ti_uia_loggers_LoggerStopMode_write0__E)
                  000036e8    000000cc     msp432p4xx_driverlib.lib : dma.o (.text:DMA_assignChannel)
                  000037b4    000000cc     MSP432_SPI.obj (.text:SPI_write)
                  00003880    000000cc     sysbios.aem4f : BIOS.obj (.text:ti_sysbios_knl_Task_schedule__I)
                  0000394c    000000cc     ti.targets.arm.rtsarm.aem4f : Core-smem.oem4f (.text:xdc_runtime_Core_constructObject__I)
                  00003a18    000000c0     sysbios.aem4f : BIOS.obj (.text:ti_sysbios_knl_Task_exit__E)
                  00003ad8    000000bc                   : BIOS.obj (.text:ti_sysbios_family_arm_m3_Hwi_excDebugMon__I)
                  00003b94    00000004     drivers_MSP432P401R.aem4f : List.oem4f (.text:List_next)
                  00003b98    000000bc     sysbios.aem4f : BIOS.obj (.text:ti_sysbios_family_arm_m3_Hwi_excHardFault__I)
                  00003c54    00000004     drivers_MSP432P401R.aem4f : PowerMSP432.oem4f (.text:PowerMSP432_getNumPerfLevels)
                  00003c58    000000bc     sysbios.aem4f : BIOS.obj (.text:ti_sysbios_knl_Task_startCore__E)
                  00003d14    00000004     rtsv7M4_T_le_v4SPD16_eabi.lib : exit.c.obj (.text:abort:abort)
                  00003d18    000000bc     sysbios.aem4f : BIOS.obj (.text:ti_sysbios_utils_Load_updateLoads__E)
                  00003dd4    000000b4     MSP432_SPI.obj (.text:SPI_initialise)
                  00003e88    000000b4     drivers_MSP432P401R.aem4f : SPIMSP432DMA.oem4f (.text:configDMA)
                  00003f3c    00000004     spiloopback_pem4f.oem4f (.text:ti_sysbios_BIOS_RtsGateProxy_enter__E)
                  00003f40    000000b4     sysbios.aem4f : BIOS.obj (.text:ti_sysbios_gates_GateMutex_enter__E)
                  00003ff4    00000004     spiloopback_pem4f.oem4f (.text:ti_sysbios_BIOS_RtsGateProxy_leave__E)
                  00003ff8    000000b4     sysbios.aem4f : BIOS.obj (.text:ti_sysbios_knl_Task_checkStacks__E)
                  000040ac    000000b0     drivers_MSP432P401R.aem4f : UARTMSP432.oem4f (.text:UARTMSP432_readPolling)
                  0000415c    000000b0     msp432p4xx_driverlib.lib : pcm.o (.text:__PCM_setCoreVoltageLevelAdvanced)
                  0000420c    00000004     spiloopback_pem4f.oem4f (.text:ti_sysbios_family_arm_m3_Hwi_destruct)
                  00004210    000000b0     sysbios.aem4f : BIOS.obj (.text:ti_sysbios_utils_Load_idleFxn__E)
                  000042c0    000000ac                   : BIOS.obj (.text:ti_sysbios_knl_Swi_post__E)
                  0000436c    00000004     spiloopback_pem4f.oem4f (.text:ti_sysbios_family_arm_m3_TaskSupport_Module__startupDone__S)
                  00004370    000000a8     sysbios.aem4f : BIOS.obj (.text:ti_sysbios_family_arm_msp432_Timer_periodicStub__E)
                  00004418    000000a8                   : BIOS.obj (.text:ti_sysbios_knl_Task_blockI__E)
                  000044c0    000000a8                   : BIOS.obj (.text:ti_sysbios_knl_Task_postInit__I)
                  00004568    000000a4     drivers_MSP432P401R.aem4f : UARTMSP432.oem4f (.text:UARTMSP432_control)
                  0000460c    00000004     spiloopback_pem4f.oem4f (.text:ti_sysbios_heaps_HeapMem_Module_GateProxy_enter__E)
                  00004610    000000a4     sysbios.aem4f : BIOS.obj (.text:ti_sysbios_knl_Clock_Instance_finalize__E)
                  000046b4    000000a0     auto_init.aem4f : auto_init.oem4f (.text)
                  00004754    000000a0     ti.targets.arm.rtsarm.aem4f : Text.oem4f (.text:xdc_runtime_Text_putMod__E)
                  000047f4    0000009c     MSP432_UART.obj (.text:MSP_UART_initialise)
                  00004890    0000009c     drivers_MSP432P401R.aem4f : UARTMSP432.oem4f (.text:readTaskBlocking)
                  0000492c    0000009c     rtsv7M4_T_le_v4SPD16_eabi.lib : memcpy_t2.asm.obj (.text)
                  000049c8    0000009c     sysbios.aem4f : BIOS.obj (.text:ti_sysbios_knl_Semaphore_Instance_init__E)
                  00004a64    0000009a     ti.targets.arm.rtsarm.aem4f : Text.oem4f (.text:xdc_runtime_Text_putSite__E)
                  00004afe    00000002     power_tirtos_MSP432P401R.aem4f : PowerMSP432_tirtos.oem4f (.text:PowerMSP432_initPolicy)
                  00004b00    00000094     msp432p4xx_driverlib.lib : uart.o (.text:UART_initModule)
                  00004b94    00000004     spiloopback_pem4f.oem4f (.text:ti_sysbios_heaps_HeapMem_Module_GateProxy_leave__E)
                  00004b98    00000094     sysbios.aem4f : BIOS.obj (.text:ti_sysbios_family_arm_m3_Hwi_Instance_init__E)
                  00004c2c    00000004     spiloopback_pem4f.oem4f (.text:ti_sysbios_knl_Clock_TimerProxy_getMaxTicks__E)
                  00004c30    00000094     sysbios.aem4f : BIOS.obj (.text:ti_sysbios_family_arm_m3_Hwi_initNVIC__E)
                  00004cc4    00000004     spiloopback_pem4f.oem4f (.text:ti_sysbios_knl_Clock_destruct)
                  00004cc8    00000090     sysbios.aem4f : BIOS.obj (.text:ti_sysbios_knl_Task_unblockI__E)
                  00004d58    00000090     ti.uia.loggers.aem4f : LoggerStopMode.oem4f (.text:ti_uia_loggers_LoggerStopMode_initQueueDescriptor__E)
                  00004de8    0000008c     rtsv7M4_T_le_v4SPD16_eabi.lib : fputc.c.obj (.text:fputc)
                  00004e74    0000008c     sysbios.aem4f : m3_TaskSupport_asm.obj (.text:ti_sysbios_family_arm_m3_TaskSupport_buildTaskStack)
                  00004f00    0000008a     drivers_MSP432P401R.aem4f : UARTMSP432.oem4f (.text:UARTMSP432_close)
                  00004f8a    00000088     msp432p4xx_driverlib.lib : spi.o (.text:SPI_initMaster)
                  00005012    00000006     drivers_MSP432P401R.aem4f : SPIMSP432DMA.oem4f (.text:SPIMSP432DMA_control)
                  00005018    00000088     sysbios.aem4f : BIOS.obj (.text:ti_sysbios_family_arm_msp432_Timer_Module_startup__E)
                  000050a0    00000084     drivers_MSP432P401R.aem4f : UARTMSP432.oem4f (.text:initHw)
                  00005124    00000004     spiloopback_pem4f.oem4f (.text:ti_sysbios_knl_Queue_destruct)
                  00005128    00000084     sysbios.aem4f : BIOS.obj (.text:ti_sysbios_family_arm_m3_Hwi_postInit__I)
                  000051ac    00000084     drivers_MSP432P401R.aem4f : UARTMSP432.oem4f (.text:writeData)
                  00005230    00000082                               : UARTMSP432.oem4f (.text:readIsrTextCallback)
                  000052b2    00000002                               : SPIMSP432DMA.oem4f (.text:SPIMSP432DMA_serviceISR)
                  000052b4    00000080     msp432p4xx_driverlib.lib : dma.o (.text:DMA_setChannelTransfer)
                  00005334    00000004     spiloopback_pem4f.oem4f (.text:ti_sysbios_knl_Semaphore_destruct)
                  00005338    00000080     sysbios.aem4f : BIOS.obj (.text:ti_sysbios_family_arm_msp432_Timer_startup__E)
                  000053b8    0000007c     msp432p4xx_driverlib.lib : pcm.o (.text:PCM_gotoLPM3)
                  00005434    0000007c     rtsv7M4_T_le_v4SPD16_eabi.lib : fflush.c.obj (.text:fflush)
                  000054b0    0000007a     drivers_MSP432P401R.aem4f : UARTMSP432.oem4f (.text:UARTMSP432_write)
                  0000552a    0000007a                               : UARTMSP432.oem4f (.text:readTaskCallback)
                  000055a4    0000007a     rtsv7M4_T_le_v4SPD16_eabi.lib : memset_t2.asm.obj (.text)
                  0000561e    00000002                                   : _lock.c.obj (.text:_nop)
                  00005620    00000074                                   : fclose.c.obj (.text:__TI_closefile)
                  00005694    00000074     drivers_MSP432P401R.aem4f : UARTMSP432.oem4f (.text:readIsrTextBlocking)
                  00005708    00000074     sysbios.aem4f : BIOS.obj (.text:ti_sysbios_knl_Clock_start__E)
                  0000577c    00000074     ti.uia.runtime.aem4f : QueueDescriptor.oem4f (.text:ti_uia_runtime_QueueDescriptor_addToList__E)
                  000057f0    00000070     sysbios.aem4f : BIOS.obj (.text:ti_sysbios_family_arm_m3_TimestampProvider_get64__E)
                  00005860    0000006d     ti.targets.arm.rtsarm.aem4f : System.oem4f (.text:xdc_runtime_System_formatNum__I)
                  000058cd    00000001     --HOLE-- [fill = 0]
                  000058ce    00000002     rtsv7M4_T_le_v4SPD16_eabi.lib : div0.asm.obj (.text)
                  000058d0    0000006c     sysbios.aem4f : BIOS.obj (.text:ti_sysbios_knl_Swi_restoreHwi__E)
                  0000593c    0000006c     ti.targets.arm.rtsarm.aem4f : Error.oem4f (.text:xdc_runtime_Error_print__E)
                  000059a8    0000006c                                 : Memory.oem4f (.text:xdc_runtime_Memory_alloc__E)
                  00005a14    00000068     rtsv7M4_T_le_v4SPD16_eabi.lib : hostlseek.c.obj (.text:HOSTlseek)
                  00005a7c    00000068                                   : hostrename.c.obj (.text:HOSTrename)
                  00005ae4    00000068                                   : copy_decompress_lzss.c.obj (.text:decompress:lzss:__TI_decompress_lzss)
                  00005b4c    00000066     ti.uia.loggers.aem4f : LoggerStopMode.oem4f (.text:ti_uia_loggers_LoggerStopMode_flush__E)
                  00005bb2    00000066     ti.targets.arm.rtsarm.aem4f : Core-mem.oem4f (.text:xdc_runtime_Core_deleteObject__I)
                  00005c18    00000064     drivers_MSP432P401R.aem4f : UARTMSP432.oem4f (.text:UARTMSP432_writePolling)
                  00005c7c    00000064     rtsv7M4_T_le_v4SPD16_eabi.lib : fseek.c.obj (.text:fseek)
                  00005ce0    00000062     tirtosport.aem4f : HwiP_tirtos.oem4f (.text:HwiP_create)
                  00005d42    00000062     rtsv7M4_T_le_v4SPD16_eabi.lib : _io_perm.c.obj (.text:__TI_wrt_ok)
                  00005da4    00000060                                   : hostopen.c.obj (.text:HOSTopen)
                  00005e04    00000004     ti.uia.loggers.aem4f : LoggerStopMode.oem4f (.text:ti_uia_loggers_LoggerStopMode_getContents__E)
                  00005e08    00000060     sysbios.aem4f : BIOS.obj (.text:ti_sysbios_family_arm_m3_TimestampProvider_get32__E)
                  00005e68    00000060                   : BIOS.obj (.text:ti_sysbios_knl_Clock_logTick__E)
                  00005ec8    00000060                   : BIOS.obj (.text:ti_sysbios_utils_Load_logCPULoad__I)
                  00005f28    0000005c     drivers_MSP432P401R.aem4f : GPIOMSP432.oem4f (.text:GPIO_init)
                  00005f84    0000005c     rtsv7M4_T_le_v4SPD16_eabi.lib : close.c.obj (.text:close)
                  00005fe0    0000005c     sysbios.aem4f : BIOS.obj (.text:ti_sysbios_knl_Swi_schedule__I)
                  0000603c    00000004     spiloopback_pem4f.oem4f (.text:ti_uia_loggers_LoggerStopMode_getFilterLevel__E)
                  00006040    0000005c     sysbios.aem4f : BIOS.obj (.text:ti_sysbios_knl_Task_Module_startup__E)
                  0000609c    0000005b     ti.targets.arm.rtsarm.aem4f : Text.oem4f (.text:xdc_runtime_Text_putLab__E)
                  000060f7    00000001     --HOLE-- [fill = 0]
                  000060f8    0000005a     tirtosport.aem4f : ClockP_tirtos.oem4f (.text:ClockP_create)
                  00006152    0000005a     drivers_MSP432P401R.aem4f : SPIMSP432DMA.oem4f (.text:SPIMSP432DMA_close)
                  000061ac    00000058     rtsv7M4_T_le_v4SPD16_eabi.lib : hostread.c.obj (.text:HOSTread)
                  00006204    00000058                                   : hostwrite.c.obj (.text:HOSTwrite)
                  0000625c    00000058     drivers_MSP432P401R.aem4f : SPIMSP432DMA.oem4f (.text:SPIMSP432DMA_transfer)
                  000062b4    00000058     tirtosport.aem4f : SemaphoreP_tirtos.oem4f (.text:SemaphoreP_create)
                  0000630c    00000058     boot.aem4f : boot.oem4f (.text)
                  00006364    00000058     spiloopback_pem4f.oem4f (.text:ti_sysbios_family_arm_m3_Hwi_construct)
                  000063bc    00000058     sysbios.aem4f : m3_Hwi_asm_switch.obj (.text:ti_sysbios_family_arm_m3_Hwi_initStacks__E)
                  00006414    00000004     ti.uia.loggers.aem4f : LoggerStopMode.oem4f (.text:ti_uia_loggers_LoggerStopMode_getInstanceId__E)
                  00006418    00000058     sysbios.aem4f : BIOS.obj (.text:ti_sysbios_family_arm_m3_Timer_setPeriod__E)
                  00006470    00000054     AFE4403.obj (.text:AFE_main_task)
                  000064c4    00000054     drivers_MSP432P401R.aem4f : GPIOMSP432.oem4f (.text:GPIO_hwiIntFxn)
                  00006518    00000054                               : GPIOMSP432.oem4f (.text:GPIO_setCallback)
                  0000656c    00000004     ti.uia.loggers.aem4f : LoggerStopMode.oem4f (.text:ti_uia_loggers_LoggerStopMode_getMaxLength__E)
                  00006570    00000054     sysbios.aem4f : BIOS.obj (.text:ti_sysbios_family_arm_m3_Timer_start__E)
                  000065c4    00000004     ti.uia.loggers.aem4f : LoggerStopMode.oem4f (.text:ti_uia_loggers_LoggerStopMode_getPriority__E)
                  000065c8    00000054     sysbios.aem4f : BIOS.obj (.text:ti_sysbios_family_arm_msp432_Timer_initDevice__I)
                  0000661c    00000004     ti.uia.loggers.aem4f : LoggerStopMode.oem4f (.text:ti_uia_loggers_LoggerStopMode_getTransferType__E)
                  00006620    00000054     sysbios.aem4f : BIOS.obj (.text:ti_sysbios_family_arm_msp432_init_Boot_configureClocksHigh)
                  00006674    00000054     ti.targets.arm.rtsarm.aem4f : Assert.oem4f (.text:xdc_runtime_Assert_raise__I)
                  000066c8    00000052     drivers_MSP432P401R.aem4f : UARTMSP432.oem4f (.text:UARTMSP432_writeCancel)
                  0000671a    00000002     spiloopback_pem4f.oem4f (.text:ti_sysbios_BIOS_nullFunc__I)
                  0000671c    00000050     msp432p4xx_driverlib.lib : pcm.o (.text:PCM_shutdownDevice)
                  0000676c    00000004     ti.targets.arm.rtsarm.aem4f : Error.oem4f (.text:xdc_runtime_Error_getSite__E)
                  00006770    00000050     sysbios.aem4f : BIOS.obj (.text:ti_sysbios_family_arm_m3_Hwi_Module_startup__E)
                  000067c0    00000050     ti.targets.arm.rtsarm.aem4f : Startup.oem4f (.text:xdc_runtime_Startup_exec__E)
                  00006810    00000050                                 : Text.oem4f (.text:xdc_runtime_Text_visitRope2__I)
                  00006860    0000004c     msp432p4xx_driverlib.lib : gpio.o (.text:GPIO_setAsPeripheralModuleFunctionOutputPin)
                  000068ac    0000004c     drivers_MSP432P401R.aem4f : UDMAMSP432.oem4f (.text:UDMAMSP432_open)
                  000068f8    0000004c     rtsv7M4_T_le_v4SPD16_eabi.lib : fflush.c.obj (.text:__TI_doflush)
                  00006944    0000004c                                   : cpy_tbl.c.obj (.text:copy_in)
                  00006990    0000004c     sysbios.aem4f : BIOS.obj (.text:ti_sysbios_heaps_HeapMem_getStats__E)
                  000069dc    00000004     ti.targets.arm.rtsarm.aem4f : SysStd.oem4f (.text:xdc_runtime_SysStd_putch__E)
                  000069e0    0000004c     sysbios.aem4f : BIOS.obj (.text:ti_sysbios_knl_Swi_runLoop__I)
                  00006a2c    00000004     ti.targets.arm.rtsarm.aem4f : SysStd.oem4f (.text:xdc_runtime_SysStd_ready__E)
                  00006a30    0000004c     sysbios.aem4f : BIOS.obj (.text:ti_sysbios_knl_Task_allBlockedFunction__I)
                  00006a7c    0000004c     ti.uia.loggers.aem4f : LoggerStopMode.oem4f (.text:ti_uia_loggers_LoggerStopMode_Module_startup__E)
                  00006ac8    0000004a     drivers_MSP432P401R.aem4f : SPIMSP432DMA.oem4f (.text:initHw)
                  00006b12    00000002     spiloopback_pem4f.oem4f (.text:ti_uia_loggers_LoggerStopMode_setFilterLevel__E)
                  00006b14    00000048     msp432p4xx_driverlib.lib : dma.o (.text:DMA_assignInterrupt)
                  00006b5c    00000048                              : gpio.o (.text:GPIO_setAsPeripheralModuleFunctionInputPin)
                  00006ba4    00000048     rtsv7M4_T_le_v4SPD16_eabi.lib : exit.c.obj (.text:exit)
                  00006bec    00000004     spiloopback_pem4f.oem4f (.text:xdc_runtime_System_Module_GateProxy_enter__E)
                  00006bf0    00000048     sysbios.aem4f : BIOS.obj (.text:ti_sysbios_family_arm_m3_Hwi_disableInterrupt__E)
                  00006c38    00000048                   : BIOS.obj (.text:ti_sysbios_family_arm_m3_Hwi_enableInterrupt__E)
                  00006c80    00000048                   : BIOS.obj (.text:ti_sysbios_family_arm_m3_Hwi_excReserved__I)
                  00006cc8    00000048                   : BIOS.obj (.text:ti_sysbios_family_arm_m3_Timer_initDevice__I)
                  00006d10    00000046     drivers_MSP432P401R.aem4f : RingBuf.oem4f (.text:RingBuf_put)
                  00006d56    00000046                               : UARTMSP432.oem4f (.text:readIsrBinaryBlocking)
                  00006d9c    00000046     ti.targets.arm.rtsarm.aem4f : Core-params.oem4f (.text:xdc_runtime_Core_assignParams__I)
                  00006de2    00000002     ti.uia.loggers.aem4f : LoggerStopMode.oem4f (.text:ti_uia_loggers_LoggerStopMode_setPriority__E)
                  00006de4    00000044     rtsv7M4_T_le_v4SPD16_eabi.lib : hostclose.c.obj (.text:HOSTclose)
                  00006e28    00000044                                   : hostunlink.c.obj (.text:HOSTunlink)
                  00006e6c    00000044     drivers_MSP432P401R.aem4f : PowerMSP432.oem4f (.text:Power_init)
                  00006eb0    00000044     rtsv7M4_T_le_v4SPD16_eabi.lib : getdevice.c.obj (.text:getdevice)
                  00006ef4    00000004     spiloopback_pem4f.oem4f (.text:xdc_runtime_System_Module_GateProxy_leave__E)
                  00006ef8    00000044     sysbios.aem4f : BIOS.obj (.text:ti_sysbios_family_arm_m3_Hwi_getStackInfo__E)
                  00006f3c    00000044     ti.uia.loggers.aem4f : LoggerStopMode.oem4f (.text:ti_uia_loggers_LoggerStopMode_initBuffer__I)
                  00006f80    00000044     ti.targets.arm.rtsarm.aem4f : Error.oem4f (.text:xdc_runtime_Error_setX__E)
                  00006fc4    00000044                                 : Text.oem4f (.text:xdc_runtime_Text_xprintf__I)
                  00007008    00000042     drivers_MSP432P401R.aem4f : UARTMSP432.oem4f (.text:UARTMSP432_hwiIntFxn)
                  0000704a    00000002     --HOLE-- [fill = 0]
                  0000704c    00000040     msp432p4xx_driverlib.lib : flash.o (.text:FlashCtl_disableReadBuffering)
                  0000708c    00000040     drivers_MSP432P401R.aem4f : RingBuf.oem4f (.text:RingBuf_get)
                  000070cc    00000040                               : UARTMSP432.oem4f (.text:UARTMSP432_read)
                  0000710c    00000040                               : UDMAMSP432.oem4f (.text:UDMAMSP432_init)
                  0000714c    00000040                               : PowerMSP432.oem4f (.text:notify)
                  0000718c    00000040     rtsv7M4_T_le_v4SPD16_eabi.lib : u_divt2.asm.obj (.text)
                  000071cc    00000004     ti.targets.arm.rtsarm.aem4f : System.oem4f (.text:xdc_runtime_System_aprintf_va__F)
                  000071d0    00000040     sysbios.aem4f : BIOS.obj (.text:ti_sysbios_family_arm_m3_Timer_Module_startup__E)
                  00007210    0000003c     msp432p4xx_driverlib.lib : dma.o (.text:DMA_enableInterrupt)
                  0000724c    0000003c     power_tirtos_MSP432P401R.aem4f : PowerMSP432_tirtos.oem4f (.text:PowerMSP432_sleepPolicy)
                  00007288    0000003c     sysbios.aem4f : BIOS.obj (.text:ti_sysbios_family_arm_m3_Hwi_excSvCall__I)
                  000072c4    00000004     ti.targets.arm.rtsarm.aem4f : System.oem4f (.text:xdc_runtime_System_printf_va__F)
                  000072c8    0000003c     sysbios.aem4f : BIOS.obj (.text:ti_sysbios_heaps_HeapMem_init__I)
                  00007304    00000004     --HOLE-- [fill = 0]
                  00007308    0000003c                   : BIOS.obj (.text:ti_sysbios_knl_Swi_restore__E)
                  00007344    00000004     --HOLE-- [fill = 0]
                  00007348    0000003c                   : BIOS.obj (.text:ti_sysbios_knl_Swi_startup__E)
                  00007384    0000003a     drivers_MSP432P401R.aem4f : SPIMSP432DMA.oem4f (.text:SPIMSP432DMA_hwiFxn)
                  000073be    0000003a                               : UARTMSP432.oem4f (.text:readIsrBinaryCallback)
                  000073f8    00000038     AFE4403.obj (.text:AFE4403_write_register_configs)
                  00007430    00000038     drivers_MSP432P401R.aem4f : SPI.oem4f (.text:SPI_init)
                  00007468    00000038                               : UART.oem4f (.text:UART_init)
                  000074a0    00000038     rtsv7M4_T_le_v4SPD16_eabi.lib : trgmsg.c.obj (.text:__TI_writemsg)
                  000074d8    00000038     sysbios.aem4f : BIOS.obj (.text:ti_sysbios_family_arm_m3_Hwi_excNoIsr__I)
                  00007510    00000038     ti.targets.arm.rtsarm.aem4f : System.oem4f (.text:xdc_runtime_System_atexit__E)
                  00007548    00000036     drivers_MSP432P401R.aem4f : UARTMSP432.oem4f (.text:UARTMSP432_readCancel)
                  0000757e    00000036                               : UARTMSP432.oem4f (.text:perfChangeNotifyFxn)
                  000075b4    00000036     rtsv7M4_T_le_v4SPD16_eabi.lib : strncpy.c.obj (.text:strncpy)
                  000075ea    00000002     --HOLE-- [fill = 0]
                  000075ec    00000034     msp432p4xx_driverlib.lib : flash.o (.text:FlashCtl_enableReadBuffering)
                  00007620    00000034     rtsv7M4_T_le_v4SPD16_eabi.lib : fopen.c.obj (.text:__TI_cleanup)
                  00007654    00000034                                   : trgmsg.c.obj (.text:__TI_readmsg)
                  00007688    00000034     spiloopback_pem4f.oem4f (.text:ti_sysbios_BIOS_startFunc__I)
                  000076bc    00000004     --HOLE-- [fill = 0]
                  000076c0    00000034     sysbios.aem4f : BIOS.obj (.text:ti_sysbios_family_arm_m3_Hwi_Instance_finalize__E)
                  000076f4    00000004     --HOLE-- [fill = 0]
                  000076f8    00000034                   : BIOS.obj (.text:ti_sysbios_family_arm_m3_Hwi_excNmi__I)
                  0000772c    00000004     --HOLE-- [fill = 0]
                  00007730    00000034                   : BIOS.obj (.text:ti_sysbios_family_arm_m3_Timer_periodicStub__I)
                  00007764    00000004     --HOLE-- [fill = 0]
                  00007768    00000034                   : BIOS.obj (.text:ti_sysbios_hal_Hwi_checkStack)
                  0000779c    00000034     spiloopback_pem4f.oem4f (.text:ti_sysbios_knl_Clock_construct)
                  000077d0    00000034     ti.uia.loggers.aem4f : LoggerStopMode.oem4f (.text:ti_uia_loggers_LoggerStopMode_reset__E)
                  00007804    00000034     ti.targets.arm.rtsarm.aem4f : Core-label.oem4f (.text:xdc_runtime_Core_assignLabel__I)
                  00007838    00000033                                 : Text.oem4f (.text:xdc_runtime_Text_printVisFxn__I)
                  0000786b    00000001     --HOLE-- [fill = 0]
                  0000786c    00000032     msp432p4xx_driverlib.lib : spi.o (.text:SPI_initSlave)
                  0000789e    00000002     --HOLE-- [fill = 0]
                  000078a0    00000032     sysbios.aem4f : BIOS.obj (.text:ti_sysbios_hal_Hwi_initStack)
                  000078d2    00000006     msp432p4xx_driverlib.lib : uart.o (.text:UART_getInterruptStatus)
                  000078d8    00000032     sysbios.aem4f : BIOS.obj (.text:ti_sysbios_knl_Semaphore_pendTimeout__I)
                  0000790a    00000002     --HOLE-- [fill = 0]
                  0000790c    00000030     msp432p4xx_driverlib.lib : gpio.o (.text:GPIO_getEnabledInterruptStatus)
                  0000793c    00000030                              : gpio.o (.text:GPIO_setAsInputPinWithPullDownResistor)
                  0000796c    00000030                              : gpio.o (.text:GPIO_setAsInputPinWithPullUpResistor)
                  0000799c    00000030     MSP_EXP432P401R.obj (.text:MSP_EXP432P401R_initSPI)
                  000079cc    00000030     drivers_MSP432P401R.aem4f : SPI.oem4f (.text:SPI_open)
                  000079fc    00000030                               : UART.oem4f (.text:UART_open)
                  00007a2c    00000030     rtsv7M4_T_le_v4SPD16_eabi.lib : getdevice.c.obj (.text:finddevice)
                  00007a5c    00000030     msp432p4xx_driverlib.lib : spi.o (.text:is_A_Module)
                  00007a8c    00000030     spiloopback_pem4f.oem4f (.text:ti_sysbios_BIOS_atExitFunc__I)
                  00007abc    00000004     --HOLE-- [fill = 0]
                  00007ac0    00000030     sysbios.aem4f : BIOS.obj (.text:ti_sysbios_family_arm_m3_TaskSupport_start__E)
                  00007af0    00000030     spiloopback_pem4f.oem4f (.text:ti_sysbios_gates_GateHwi_Object__create__S)
                  00007b20    00000030     spiloopback_pem4f.oem4f (.text:ti_sysbios_gates_GateMutex_Object__create__S)
                  00007b50    00000030     spiloopback_pem4f.oem4f (.text:ti_sysbios_heaps_HeapMem_Object__create__S)
                  00007b80    00000030     spiloopback_pem4f.oem4f (.text:ti_sysbios_knl_Semaphore_construct)
                  00007bb0    00000030     sysbios.aem4f : BIOS.obj (.text:ti_sysbios_utils_Load_updateCurrentThreadTime__E)
                  00007be0    00000030     spiloopback_pem4f.oem4f (.text:ti_uia_loggers_LoggerStopMode_Object__create__S)
                  00007c10    00000030     ti.targets.arm.rtsarm.aem4f : System.oem4f (.text:xdc_runtime_System_processAtExit__E)
                  00007c40    0000002e     spiloopback_pem4f.oem4f (.text:malloc)
                  00007c6e    00000002     --HOLE-- [fill = 0]
                  00007c70    0000002c     msp432p4xx_driverlib.lib : gpio.o (.text:GPIO_setAsInputPin)
                  00007c9c    0000002c                              : pcm.o (.text:PCM_getCoreVoltageLevel)
                  00007cc8    0000002c     power_tirtos_MSP432P401R.aem4f : PowerMSP432_tirtos.oem4f (.text:PowerMSP432_updateFreqs)
                  00007cf4    0000002c     drivers_MSP432P401R.aem4f : PowerMSP432.oem4f (.text:Power_releaseConstraint)
                  00007d20    0000002c                               : PowerMSP432.oem4f (.text:Power_setConstraint)
                  00007d4c    0000002c     spiloopback_pem4f.oem4f (.text:ti_sysbios_knl_Clock_doTick__I)
                  00007d78    0000002c     spiloopback_pem4f.oem4f (.text:ti_sysbios_knl_Queue_construct)
                  00007da4    00000004     --HOLE-- [fill = 0]
                  00007da8    0000002c     sysbios.aem4f : BIOS.obj (.text:ti_sysbios_knl_Task_restore__E)
                  00007dd4    0000002c     rtsv7M4_T_le_v4SPD16_eabi.lib : unlink.c.obj (.text:unlink)
                  00007e00    0000002c     ti.targets.arm.rtsarm.aem4f : Text.oem4f (.text:xdc_runtime_Text_cordText__E)
                  00007e2c    0000002a     msp432p4xx_driverlib.lib : pcm.o (.text:PCM_getPowerMode)
                  00007e56    0000002a     drivers_MSP432P401R.aem4f : UARTMSP432.oem4f (.text:findBaudDividerIndex)
                  00007e80    0000002a                               : SPIMSP432DMA.oem4f (.text:perfChangeNotifyFxn)
                  00007eaa    0000002a     ti.targets.arm.rtsarm.aem4f : System.oem4f (.text:xdc_runtime_System_putchar__I)
                  00007ed4    00000028     AFE4403.obj (.text:AFE4403_reg_read)
                  00007efc    00000028     msp432p4xx_driverlib.lib : flash.o (.text:FlashCtl_setWaitState)
                  00007f24    00000028     drivers_MSP432P401R.aem4f : GPIOMSP432.oem4f (.text:GPIO_enableInt)
                  00007f4c    00000028     MSP432_UART_TX.obj (.text:MSP432_UART_main_task)
                  00007f74    00000028     msp432p4xx_driverlib.lib : pcm.o (.text:PCM_gotoLPM0)
                  00007f9c    00000028     rtsv7M4_T_le_v4SPD16_eabi.lib : lseek.c.obj (.text:lseek)
                  00007fc4    00000004     --HOLE-- [fill = 0]
                  00007fc8    00000028     sysbios.aem4f : BIOS.obj (.text:ti_sysbios_knl_Swi_Module_startup__E)
                  00007ff0    00000028     rtsv7M4_T_le_v4SPD16_eabi.lib : write.c.obj (.text:write)
                  00008018    00000026     drivers_MSP432P401R.aem4f : List.oem4f (.text:List_put)
                  0000803e    00000026     sysbios.aem4f : m3_Hwi_asm.obj (.text:ti_sysbios_family_arm_m3_Hwi_pendSV__I)
                  00008064    00000026     ti.targets.arm.rtsarm.aem4f : System.oem4f (.text:xdc_runtime_System_avprintf__E)
                  0000808a    00000002     --HOLE-- [fill = 0]
                  0000808c    00000024     msp432p4xx_driverlib.lib : cs.o (.text:CS_setDCOCenteredFrequency)
                  000080b0    00000024                              : dma.o (.text:DMA_setChannelControl)
                  000080d4    00000024                              : gpio.o (.text:GPIO_setAsOutputPin)
                  000080f8    00000024     MSP432_UART.obj (.text:MSP_UART_write)
                  0000811c    00000024     msp432p4xx_driverlib.lib : rtc_c.o (.text:RTC_C_holdClock)
                  00008140    00000024                              : rtc_c.o (.text:RTC_C_startClock)
                  00008164    00000024                              : uart.o (.text:UART_disableInterrupt)
                  00008188    00000024                              : uart.o (.text:UART_receiveData)
                  000081ac    00000024                              : uart.o (.text:UART_transmitData)
                  000081d0    00000024     spiloopback_pem4f.oem4f (.text:ti_sysbios_BIOS_errorRaiseHook__I)
                  000081f4    00000024     spiloopback_pem4f.oem4f (.text:ti_sysbios_BIOS_registerRTSLock__I)
                  00008218    00000024     spiloopback_pem4f.oem4f (.text:ti_sysbios_BIOS_removeRTSLock__I)
                  0000823c    00000004     --HOLE-- [fill = 0]
                  00008240    00000024     sysbios.aem4f : BIOS.obj (.text:ti_sysbios_family_arm_m3_Hwi_doTaskRestore__I)
                  00008264    00000004     --HOLE-- [fill = 0]
                  00008268    00000024                   : BIOS.obj (.text:ti_sysbios_family_arm_m3_Timer_startup__E)
                  0000828c    00000004     --HOLE-- [fill = 0]
                  00008290    00000024                   : BIOS.obj (.text:ti_sysbios_family_arm_msp432_ClockFreqs_setFrequency__E)
                  000082b4    00000024     spiloopback_pem4f.oem4f (.text:ti_sysbios_gates_GateMutex_Object__delete__S)
                  000082d8    00000024     sysbios.aem4f : BIOS.obj (.text:ti_sysbios_knl_Clock_Module_startup__E)
                  000082fc    00000024     ti.targets.arm.rtsarm.aem4f : System.oem4f (.text:xdc_runtime_System_vprintf__E)
                  00008320    00000020     msp432p4xx_driverlib.lib : gpio.o (.text:GPIO_interruptEdgeSelect)
                  00008340    00000020     drivers_MSP432P401R.aem4f : PowerMSP432.oem4f (.text:PowerMSP432_getFreqs)
                  00008360    00000020                               : PowerMSP432.oem4f (.text:Power_unregisterNotify)
                  00008380    00000020                               : RingBuf.oem4f (.text:RingBuf_peek)
                  000083a0    00000020                               : UDMAMSP432.oem4f (.text:UDMAMSP432_close)
                  000083c0    00000020     spiloopback_pem4f.oem4f (.text:ti_sysbios_BIOS_rtsLock__I)
                  000083e0    00000020     sysbios.aem4f : m3_Hwi_asm.obj (.text:ti_sysbios_family_arm_m3_Hwi_excHandlerAsm__I)
                  00008400    00000020                   : BIOS.obj (.text:ti_sysbios_family_arm_m3_Hwi_excHandler__I)
                  00008420    00000020                   : BIOS.obj (.text:ti_sysbios_family_arm_m3_TimestampProvider_Module_startup__E)
                  00008440    00000020     spiloopback_pem4f.oem4f (.text:ti_sysbios_gates_GateHwi_Object__delete__S)
                  00008460    00000020     spiloopback_pem4f.oem4f (.text:ti_sysbios_heaps_HeapMem_Object__delete__S)
                  00008480    00000020     spiloopback_pem4f.oem4f (.text:ti_sysbios_knl_Clock_Object__destruct__S)
                  000084a0    00000020     sysbios.aem4f : BIOS.obj (.text:ti_sysbios_knl_Idle_run__E)
                  000084c0    00000020     spiloopback_pem4f.oem4f (.text:ti_sysbios_knl_Semaphore_Object__destruct__S)
                  000084e0    00000020     spiloopback_pem4f.oem4f (.text:ti_uia_loggers_LoggerStopMode_Object__delete__S)
                  00008500    00000020     ti.targets.arm.rtsarm.aem4f : Registry.oem4f (.text:xdc_runtime_Registry_findById__E)
                  00008520    00000020                                 : SysStd.oem4f (.text:xdc_runtime_SysStd_abort__E)
                  00008540    0000001e     spiloopback.obj (.text:main)
                  0000855e    0000001e     sysbios.aem4f : m3_Hwi_asm_switch.obj (.text:ti_sysbios_family_xxx_Hwi_switchAndRunFunc)
                  0000857c    0000001c     msp432p4xx_driverlib.lib : pcm.o (.text:PCM_enableRudeMode)
                  00008598    0000001c     drivers_MSP432P401R.aem4f : PowerMSP432.oem4f (.text:Power_registerNotify)
                  000085b4    0000001c     spiloopback_pem4f.oem4f (.text:ti_sysbios_family_arm_m3_Hwi_Object__destruct__S)
                  000085d0    0000001c     sysbios.aem4f : BIOS.obj (.text:ti_sysbios_gates_GateMutex_Instance_init__E)
                  000085ec    0000001c     spiloopback_pem4f.oem4f (.text:ti_sysbios_knl_Queue_Object__destruct__S)
                  00008608    0000001c     sysbios.aem4f : BIOS.obj (.text:ti_sysbios_knl_Task_enter__I)
                  00008624    0000001c     ti.uia.loggers.aem4f : LoggerStopMode.oem4f (.text:ti_uia_loggers_LoggerStopMode_Instance_init__E)
                  00008640    0000001c     ti.targets.arm.rtsarm.aem4f : Error.oem4f (.text:xdc_runtime_Error_raiseX__E)
                  0000865c    0000001c                                 : Memory.oem4f (.text:xdc_runtime_Memory_valloc__E)
                  00008678    0000001c                                 : System.oem4f (.text:xdc_runtime_System_abort__E)
                  00008694    0000001a     drivers_MSP432P401R.aem4f : List.oem4f (.text:List_remove)
                  000086ae    0000001a     msp432p4xx_driverlib.lib : spi.o (.text:SPI_disableModule)
                  000086c8    0000001a                              : spi.o (.text:SPI_enableModule)
                  000086e2    0000001a                              : spi.o (.text:SPI_getReceiveBufferAddressForDMA)
                  000086fc    0000001a                              : spi.o (.text:SPI_getTransmitBufferAddressForDMA)
                  00008716    0000001a     spiloopback_pem4f.oem4f (.text:free)
                  00008730    0000001a     spiloopback_pem4f.oem4f (.text:ti_sysbios_family_arm_m3_Hwi_Handle__label__S)
                  0000874a    0000001a     spiloopback_pem4f.oem4f (.text:ti_sysbios_gates_GateHwi_Handle__label__S)
                  00008764    0000001a     spiloopback_pem4f.oem4f (.text:ti_sysbios_gates_GateMutex_Handle__label__S)
                  0000877e    0000001a     spiloopback_pem4f.oem4f (.text:ti_sysbios_heaps_HeapMem_Handle__label__S)
                  00008798    0000001a     spiloopback_pem4f.oem4f (.text:ti_sysbios_knl_Swi_Handle__label__S)
                  000087b2    0000001a     spiloopback_pem4f.oem4f (.text:ti_sysbios_knl_Task_Handle__label__S)
                  000087cc    0000001a     spiloopback_pem4f.oem4f (.text:ti_uia_loggers_LoggerStopMode_Handle__label__S)
                  000087e6    0000001a     spiloopback_pem4f.oem4f (.text:xdc_runtime_System_aprintf__E)
                  00008800    0000001a     spiloopback_pem4f.oem4f (.text:xdc_runtime_System_printf__E)
                  0000881a    00000002     --HOLE-- [fill = 0]
                  0000881c    00000018     msp432p4xx_driverlib.lib : dma.o (.text:DMA_clearInterruptFlag)
                  00008834    00000018                              : dma.o (.text:DMA_enableChannel)
                  0000884c    00000018                              : dma.o (.text:DMA_isChannelEnabled)
                  00008864    00000018                              : gpio.o (.text:GPIO_clearInterruptFlag)
                  0000887c    00000018                              : gpio.o (.text:GPIO_setDriveStrengthLow)
                  00008894    00000018                              : gpio.o (.text:GPIO_setOutputLowOnPin)
                  000088ac    00000018     MSP432_GPIO.obj (.text:MSP_GPIO_Configs)
                  000088c4    00000018     drivers_MSP432P401R.aem4f : SPIMSP432DMA.oem4f (.text:SPIMSP432DMA_transferCancel)
                  000088dc    00000018                               : UART.oem4f (.text:UART_Params_init)
                  000088f4    00000018     msp432p4xx_driverlib.lib : wdt_a.o (.text:WDT_A_holdTimer)
                  0000890c    00000018     rtsv7M4_T_le_v4SPD16_eabi.lib : args_main.c.obj (.text:_args_main)
                  00008924    00000018                                   : strcmp.c.obj (.text:strcmp)
                  0000893c    00000018     spiloopback_pem4f.oem4f (.text:ti_sysbios_BIOS_rtsUnlock__I)
                  00008954    00000018     spiloopback_pem4f.oem4f (.text:ti_sysbios_family_arm_m3_Hwi_Module__startupDone__F)
                  0000896c    00000018     sysbios.aem4f : m3_TaskSupport_asm.obj (.text:ti_sysbios_family_arm_m3_TaskSupport_swap__E)
                  00008984    00000018     spiloopback_pem4f.oem4f (.text:ti_sysbios_family_arm_msp432_Timer_Module__startupDone__F)
                  0000899c    00000004     --HOLE-- [fill = 0]
                  000089a0    00000018     sysbios.aem4f : BIOS.obj (.text:ti_sysbios_gates_GateMutex_leave__E)
                  000089b8    00000018     ti.targets.arm.rtsarm.aem4f : Error.oem4f (.text:xdc_runtime_Error_check__E)
                  000089d0    00000018                                 : System.oem4f (.text:xdc_runtime_System_exit__E)
                  000089e8    00000018                                 : Text.oem4f (.text:xdc_runtime_Text_ropeText__E)
                  00008a00    00000016     tirtosport.aem4f : ClockP_tirtos.oem4f (.text:ClockP_delete)
                  00008a16    00000016                      : HwiP_tirtos.oem4f (.text:HwiP_delete)
                  00008a2c    00000016                      : SemaphoreP_tirtos.oem4f (.text:SemaphoreP_delete)
                  00008a42    00000016     msp432p4xx_driverlib.lib : uart.o (.text:UART_enableInterrupt)
                  00008a58    00000016     rtsv7M4_T_le_v4SPD16_eabi.lib : strchr.c.obj (.text:strchr)
                  00008a6e    00000016     spiloopback_pem4f.oem4f (.text:ti_sysbios_BIOS_exitFunc__I)
                  00008a84    00000016     ti.uia.loggers.aem4f : LoggerStopMode.oem4f (.text:ti_uia_loggers_LoggerStopMode_disable__E)
                  00008a9a    00000016                          : LoggerStopMode.oem4f (.text:ti_uia_loggers_LoggerStopMode_enable__E)
                  00008ab0    00000014     AFE4403.obj (.text:AFE4403_reg_write)
                  00008ac4    00000014     msp432p4xx_driverlib.lib : gpio.o (.text:GPIO_enableInterrupt)
                  00008ad8    00000014                              : gpio.o (.text:GPIO_setDriveStrengthHigh)
                  00008aec    00000014                              : gpio.o (.text:GPIO_setOutputHighOnPin)
                  00008b00    00000014     drivers_MSP432P401R.aem4f : PowerMSP432.oem4f (.text:Power_idleFunc)
                  00008b14    00000014                               : SPI.oem4f (.text:SPI_Params_init)
                  00008b28    00000014     msp432p4xx_driverlib.lib : wdt_a.o (.text:WDT_A_startTimer)
                  00008b3c    00000014     rtsv7M4_T_le_v4SPD16_eabi.lib : strcpy.c.obj (.text:strcpy)
                  00008b50    00000014                                   : strlen.c.obj (.text:strlen)
                  00008b64    00000014     spiloopback_pem4f.oem4f (.text:ti_sysbios_family_arm_m3_Hwi_Object__get__S)
                  00008b78    00000014     sysbios.aem4f : BIOS.obj (.text:ti_sysbios_family_arm_m3_Hwi_switchFromBootStack__E)
                  00008b8c    00000014     spiloopback_pem4f.oem4f (.text:ti_sysbios_heaps_HeapMem_Object__get__S)
                  00008ba0    00000014     spiloopback_pem4f.oem4f (.text:ti_sysbios_knl_Swi_Object__get__S)
                  00008bb4    00000012     tirtosport.aem4f : ClockP_tirtos.oem4f (.text:ClockP_start)
                  00008bc6    00000012     drivers_MSP432P401R.aem4f : RingBuf.oem4f (.text:RingBuf_construct)
                  00008bd8    00000012     tirtosport.aem4f : SemaphoreP_tirtos.oem4f (.text:SemaphoreP_pend)
                  00008bea    00000006     msp432p4xx_driverlib.lib : uart.o (.text:UART_queryStatusFlags)
                  00008bf0    00000012     sysbios.aem4f : BIOS.obj (.text:ti_sysbios_hal_Hwi_Module_startup__E)
                  00008c02    00000012     spiloopback_pem4f.oem4f (.text:xdc_runtime_Startup_exec__I)
                  00008c14    00000010     AFE4403.obj (.text:AFE_ADC_RDY_goes_low)
                  00008c24    00000010     msp432p4xx_driverlib.lib : dma.o (.text:DMA_clearErrorStatus)
                  00008c34    00000010                              : dma.o (.text:DMA_enableModule)
                  00008c44    00000010                              : gpio.o (.text:GPIO_getInterruptStatus)
                  00008c54    00000010                              : pcm.o (.text:PCM_gotoLPM4)
                  00008c64    00000010     MSP_EXP432P401R.obj (.text:dmaErrorHwi)
                  00008c74    00000010     drivers_MSP432P401R.aem4f : UARTMSP432.oem4f (.text:readBlockingTimeout)
                  00008c84    00000004     --HOLE-- [fill = 0]
                  00008c88    00000010     sysbios.aem4f : BIOS.obj (.text:ti_sysbios_BIOS_getCpuFreq__E)
                  00008c98    00000010                   : BIOS.obj (.text:ti_sysbios_BIOS_setCpuFreq__E)
                  00008ca8    00000010                   : BIOS.obj (.text:ti_sysbios_BIOS_setThreadType__E)
                  00008cb8    00000010                   : BIOS.obj (.text:ti_sysbios_BIOS_start__E)
                  00008cc8    00000010                   : m3_TaskSupport_asm.obj (.text:ti_sysbios_family_arm_m3_TaskSupport_glue)
                  00008cd8    00000010                   : BIOS.obj (.text:ti_sysbios_family_arm_msp432_init_Boot_disableWatchdog)
                  00008ce8    00000010                   : BIOS.obj (.text:ti_sysbios_gates_GateMutex_Instance_finalize__E)
                  00008cf8    00000010                   : BIOS.obj (.text:ti_sysbios_knl_Semaphore_Instance_finalize__E)
                  00008d08    00000010                   : BIOS.obj (.text:ti_sysbios_knl_Swi_disable__E)
                  00008d18    00000010     spiloopback_pem4f.oem4f (.text:ti_sysbios_knl_Task_Object__get__S)
                  00008d28    00000010     sysbios.aem4f : BIOS.obj (.text:ti_sysbios_knl_Task_disable__E)
                  00008d38    00000010     spiloopback_pem4f.oem4f (.text:ti_uia_loggers_LoggerStopMode_Object__get__S)
                  00008d48    00000010     ti.uia.loggers.aem4f : LoggerStopMode.oem4f (.text:ti_uia_loggers_LoggerStopMode_isEmpty__E)
                  00008d58    00000010     ti.targets.arm.rtsarm.aem4f : Gate.oem4f (.text:xdc_runtime_Gate_leaveSystem__E)
                  00008d68    00000010                                 : Memory.oem4f (.text:xdc_runtime_Memory_free__E)
                  00008d78    00000010                                 : System.oem4f (.text:xdc_runtime_System_vsnprintf__E)
                  00008d88    00000010     spiloopback_pem4f.oem4f (.text:xdc_runtime_Text_visitRope__I)
                  00008d98    0000000e     tirtosport.aem4f : HwiP_tirtos.oem4f (.text:HwiP_Params_init)
                  00008da6    0000000e     msp432p4xx_driverlib.lib : uart.o (.text:UART_clearInterruptFlag)
                  00008db4    0000000e     rtsv7M4_T_le_v4SPD16_eabi.lib : copy_decompress_none.c.obj (.text:decompress:none:__TI_decompress_none)
                  00008dc2    00000006     ti.targets.arm.rtsarm.aem4f : System.oem4f (.text:xdc_runtime_System_Module_startup__E)
                  00008dc8    0000000e     sysbios.aem4f : BIOS.obj (.text:ti_sysbios_knl_Idle_loop__E)
                  00008dd6    00000002     --HOLE-- [fill = 0]
                  00008dd8    0000000e                   : BIOS.obj (.text:ti_sysbios_knl_Queue_empty__E)
                  00008de6    0000000c     spiloopback_pem4f.oem4f (.text:.bootCodeSection:ti_sysbios_family_arm_msp432_init_Boot_init__I)
                  00008df2    0000000c     AFE4403.obj (.text:AFE4403_disable_read)
                  00008dfe    0000000c     AFE4403.obj (.text:AFE4403_enable_read)
                  00008e0a    0000000c     msp432p4xx_driverlib.lib : cpu.o (.text:CPU_cpsid)
                  00008e16    0000000c                              : cpu.o (.text:CPU_cpsie)
                  00008e22    00000002     --HOLE-- [fill = 0]
                  00008e24    0000000c                              : dma.o (.text:DMA_getErrorStatus)
                  00008e30    0000000c                              : dma.o (.text:DMA_setControlBase)
                  00008e3c    0000000c                              : spi.o (.text:EUSCI_A_SPI_disable)
                  00008e48    0000000c                              : spi.o (.text:EUSCI_A_SPI_enable)
                  00008e54    0000000c                              : spi.o (.text:EUSCI_B_SPI_disable)
                  00008e60    0000000c                              : spi.o (.text:EUSCI_B_SPI_enable)
                  00008e6c    0000000c                              : pcm.o (.text:PCM_getPowerState)
                  00008e78    0000000c     drivers_MSP432P401R.aem4f : PowerMSP432.oem4f (.text:Power_getConstraintMask)
                  00008e84    0000000c                               : PowerMSP432.oem4f (.text:Power_getPerformanceLevel)
                  00008e90    0000000c                               : UARTMSP432.oem4f (.text:UARTMSP432_init)
                  00008e9c    0000000c     msp432p4xx_driverlib.lib : uart.o (.text:UART_disableModule)
                  00008ea8    0000000c                              : uart.o (.text:UART_enableModule)
                  00008eb4    0000000c     rtsv7M4_T_le_v4SPD16_eabi.lib : _lock.c.obj (.text:_register_lock)
                  00008ec0    0000000c                                   : _lock.c.obj (.text:_register_unlock)
                  00008ecc    0000000c                                   : copy_zero_init.c.obj (.text:decompress:ZI:__TI_zero_init)
                  00008ed8    0000000c                                   : fputc.c.obj (.text:putchar)
                  00008ee4    0000000c     spiloopback_pem4f.oem4f (.text:ti_sysbios_family_arm_m3_Hwi_Params__init__S)
                  00008ef0    0000000c     sysbios.aem4f : BIOS.obj (.text:ti_sysbios_family_arm_m3_Hwi_disableFxn__E)
                  00008efc    00000004     --HOLE-- [fill = 0]
                  00008f00    0000000c                   : BIOS.obj (.text:ti_sysbios_family_arm_m3_TaskSupport_checkStack__E)
                  00008f0c    00000004     --HOLE-- [fill = 0]
                  00008f10    0000000c                   : BIOS.obj (.text:ti_sysbios_family_arm_m3_TimestampProvider_startTimer__E)
                  00008f1c    00000004     --HOLE-- [fill = 0]
                  00008f20    0000000c                   : BIOS.obj (.text:ti_sysbios_family_arm_msp432_Timer_getMaxTicks__E)
                  00008f2c    00000004     --HOLE-- [fill = 0]
                  00008f30    0000000c                   : BIOS.obj (.text:ti_sysbios_gates_GateHwi_enter__E)
                  00008f3c    0000000c     spiloopback_pem4f.oem4f (.text:ti_sysbios_knl_Clock_Params__init__S)
                  00008f48    0000000c     spiloopback_pem4f.oem4f (.text:ti_sysbios_knl_Queue_Object__get__S)
                  00008f54    0000000c     spiloopback_pem4f.oem4f (.text:ti_sysbios_knl_Semaphore_Params__init__S)
                  00008f60    0000000c     ti.targets.arm.rtsarm.aem4f : Error.oem4f (.text:xdc_runtime_Error_init__E)
                  00008f6c    0000000c                                 : Gate.oem4f (.text:xdc_runtime_Gate_enterSystem__E)
                  00008f78    0000000c                                 : Memory.oem4f (.text:xdc_runtime_Memory_calloc__E)
                  00008f84    0000000c                                 : Memory.oem4f (.text:xdc_runtime_Memory_getMaxDefaultTypeAlign__E)
                  00008f90    0000000c                                 : Startup.oem4f (.text:xdc_runtime_Startup_rtsDone__E)
                  00008f9c    0000000c                                 : SysStd.oem4f (.text:xdc_runtime_SysStd_exit__E)
                  00008fa8    0000000a     tirtosport.aem4f : ClockP_tirtos.oem4f (.text:ClockP_stop)
                  00008fb2    0000000a     drivers_MSP432P401R.aem4f : SPIMSP432DMA.oem4f (.text:SPIMSP432DMA_init)
                  00008fbc    0000000a                               : SPI.oem4f (.text:SPI_transfer)
                  00008fc6    0000000a     tirtosport.aem4f : SemaphoreP_tirtos.oem4f (.text:SemaphoreP_post)
                  00008fd0    0000000a     drivers_MSP432P401R.aem4f : UART.oem4f (.text:UART_write)
                  00008fda    0000000a     spiloopback_pem4f.oem4f (.text:xdc_runtime_IHeap_alloc)
                  00008fe4    0000000a     spiloopback_pem4f.oem4f (.text:xdc_runtime_IHeap_free)
                  00008fee    00000008     tirtosport.aem4f : ClockP_tirtos.oem4f (.text:ClockP_Params_init)
                  00008ff6    00000008     MSP_EXP432P401R.obj (.text:MSP_EXP432P401R_initGPIO)
                  00008ffe    00000008     MSP_EXP432P401R.obj (.text:MSP_EXP432P401R_initGeneral)
                  00009006    00000008     msp432p4xx_driverlib.lib : pcm.o (.text:PCM_setPowerMode)
                  0000900e    00000008                              : pcm.o (.text:PCM_setPowerState)
                  00009016    00000008     tirtosport.aem4f : SemaphoreP_tirtos.oem4f (.text:SemaphoreP_Params_init)
                  0000901e    00000008     drivers_MSP432P401R.aem4f : SPIMSP432DMA.oem4f (.text:blockingTransferCallback)
                  00009026    00000008                               : UARTMSP432.oem4f (.text:readSemCallback)
                  0000902e    00000002     --HOLE-- [fill = 0]
                  00009030    00000008     sysbios.aem4f : BIOS.obj (.text:ti_sysbios_family_arm_m3_Hwi_doSwiRestore__I)
                  00009038    00000008                   : BIOS.obj (.text:ti_sysbios_family_arm_m3_Hwi_startup__E)
                  00009040    00000008     drivers_MSP432P401R.aem4f : UARTMSP432.oem4f (.text:writeSemCallback)
                  00009048    00000006     sysbios.aem4f : BIOS.obj (.text:ti_sysbios_family_arm_m3_Hwi_restoreFxn__E)
                  0000904e    00000002     --HOLE-- [fill = 0]
                  00009050    00000006                   : BIOS.obj (.text:ti_sysbios_gates_GateHwi_leave__E)
                  00009056    00000002     --HOLE-- [fill = 0]
                  00009058    00000006                   : BIOS.obj (.text:ti_sysbios_heaps_HeapMem_isBlocking__E)
                  0000905e    00000002     --HOLE-- [fill = 0]
                  00009060    00000006                   : BIOS.obj (.text:ti_sysbios_knl_Clock_stop__E)
                  00009066    00000002     --HOLE-- [fill = 0]
                  00009068    00000006                   : BIOS.obj (.text:ti_sysbios_knl_Queue_Instance_init__E)
                  0000906e    00000002     --HOLE-- [fill = 0]
                  00009070    00000004                   : BIOS.obj (.text:ti_sysbios_gates_GateHwi_query__E)
                  00009074    00000004     --HOLE-- [fill = 0]
                  00009078    00000004                   : BIOS.obj (.text:ti_sysbios_gates_GateMutex_query__E)
                  0000907c    00000004     --HOLE-- [fill = 0]
                  00009080    00000004                   : BIOS.obj (.text:ti_sysbios_knl_Clock_setTimeout__E)
                  00009084    00000004     --HOLE-- [fill = 0]
                  00009088    00000004                   : BIOS.obj (.text:ti_sysbios_knl_Task_startup__E)
                  0000908c    00000004     --HOLE-- [fill = 0]
                  00009090    00000002                   : BIOS.obj (.text:ti_sysbios_BIOS_linkedWithIncorrectBootLibrary__E)
                  00009092    00000006     --HOLE-- [fill = 0]
                  00009098    00000002                   : BIOS.obj (.text:ti_sysbios_family_arm_m3_TimestampProvider_rolloverFunc__E)
                  0000909a    00000006     --HOLE-- [fill = 0]
                  000090a0    00000002                   : BIOS.obj (.text:ti_sysbios_gates_GateHwi_Instance_init__E)

.const     0    000090a4    00002b20     
                  000090a4    0000205e     spiloopback_pem4f.oem4f (.const:xdc_runtime_Text_charTab__A)
                  0000b102    00000002     spiloopback_pem4f.oem4f (.const:ti_sysbios_family_arm_m3_Hwi_Module__id__C)
                  0000b104    00000168     AFE4403.obj (.const:AFE_REG)
                  0000b26c    00000100     spiloopback_pem4f.oem4f (.const:xdc_runtime_Text_nodeTab__A)
                  0000b36c    00000070     MSP_EXP432P401R.obj (.const:uartMSP432Baudrates)
                  0000b3dc    00000060     spiloopback_pem4f.oem4f (.const:ti_uia_loggers_LoggerStopMode_Module__FXNS__C)
                  0000b43c    00000048     spiloopback_pem4f.oem4f (.const:.string)
                  0000b484    00000048     MSP_EXP432P401R.obj (.const:uartMSP432HWAttrs)
                  0000b4cc    00000030     MSP_EXP432P401R.obj (.const:spiMSP432DMAHWAttrs)
                  0000b4fc    00000030     spiloopback_pem4f.oem4f (.const:ti_sysbios_family_arm_m3_Hwi_Object__PARAMS__C)
                  0000b52c    00000028     drivers_MSP432P401R.aem4f : UARTMSP432.oem4f (.const:UARTMSP432_fxnTable)
                  0000b554    00000028                               : SPIMSP432DMA.oem4f (.const)
                  0000b57c    00000028     spiloopback_pem4f.oem4f (.const:ti_sysbios_heaps_HeapMem_Module__FXNS__C)
                  0000b5a4    00000028     spiloopback_pem4f.oem4f (.const:ti_uia_loggers_LoggerStopMode_Object__PARAMS__C)
                  0000b5cc    00000028     spiloopback_pem4f.oem4f (.const:xdc_runtime_Startup_sfxnTab__A)
                  0000b5f4    00000024     MSP_EXP432P401R.obj (.const:SPI_config)
                  0000b618    00000024     MSP_EXP432P401R.obj (.const:UART_config)
                  0000b63c    00000024     drivers_MSP432P401R.aem4f : UART.oem4f (.const:UART_defaultParams)
                  0000b660    00000024                               : UARTMSP432.oem4f (.const)
                  0000b684    00000024     spiloopback_pem4f.oem4f (.const:ti_sysbios_gates_GateHwi_Module__FXNS__C)
                  0000b6a8    00000024     spiloopback_pem4f.oem4f (.const:ti_sysbios_gates_GateMutex_Module__FXNS__C)
                  0000b6cc    00000024     spiloopback_pem4f.oem4f (.const:ti_sysbios_heaps_HeapMem_Object__PARAMS__C)
                  0000b6f0    00000024     spiloopback_pem4f.oem4f (.const:ti_sysbios_knl_Clock_Object__PARAMS__C)
                  0000b714    00000024     spiloopback_pem4f.oem4f (.const:ti_sysbios_knl_Semaphore_Object__PARAMS__C)
                  0000b738    00000020     drivers_MSP432P401R.aem4f : SPI.oem4f (.const)
                  0000b758    00000020     spiloopback_pem4f.oem4f (.const:ti_sysbios_family_arm_m3_Hwi_Object__DESC__C)
                  0000b778    00000020     spiloopback_pem4f.oem4f (.const:ti_sysbios_gates_GateHwi_Object__DESC__C)
                  0000b798    00000020     spiloopback_pem4f.oem4f (.const:ti_sysbios_gates_GateMutex_Object__DESC__C)
                  0000b7b8    00000020     spiloopback_pem4f.oem4f (.const:ti_sysbios_heaps_HeapMem_Object__DESC__C)
                  0000b7d8    00000020     spiloopback_pem4f.oem4f (.const:ti_sysbios_knl_Clock_Object__DESC__C)
                  0000b7f8    00000020     spiloopback_pem4f.oem4f (.const:ti_sysbios_knl_Queue_Object__DESC__C)
                  0000b818    00000020     spiloopback_pem4f.oem4f (.const:ti_sysbios_knl_Semaphore_Object__DESC__C)
                  0000b838    00000020     spiloopback_pem4f.oem4f (.const:ti_uia_loggers_LoggerStopMode_Object__DESC__C)
                  0000b858    00000018     spiloopback_pem4f.oem4f (.const:ti_sysbios_gates_GateHwi_Object__PARAMS__C)
                  0000b870    00000018     spiloopback_pem4f.oem4f (.const:ti_sysbios_gates_GateMutex_Object__PARAMS__C)
                  0000b888    00000018     spiloopback_pem4f.oem4f (.const:ti_sysbios_knl_Queue_Object__PARAMS__C)
                  0000b8a0    00000014     MSP_EXP432P401R.obj (.const:GPIOMSP432_config)
                  0000b8b4    00000014     spiloopback_pem4f.oem4f (.const:xdc_runtime_Startup_sfxnRts__A)
                  0000b8c8    00000010     MSP_EXP432P401R.obj (.const:PowerMSP432_config)
                  0000b8d8    00000010     spiloopback_pem4f.oem4f (.const)
                  0000b8e8    0000000c     drivers_MSP432P401R.aem4f : GPIOMSP432.oem4f (.const:.string)
                  0000b8f4    0000000c     spiloopback_pem4f.oem4f (.const:ti_sysbios_knl_Idle_funcList__A)
                  0000b900    0000000c     MSP_EXP432P401R.obj (.const:udmaMSP432HWAttrs)
                  0000b90c    0000000c     spiloopback_pem4f.oem4f (.const:xdc_runtime_Startup_firstFxns__A)
                  0000b918    00000008     MSP_EXP432P401R.obj (.const:UDMAMSP432_config)
                  0000b920    00000008     spiloopback_pem4f.oem4f (.const:ti_sysbios_family_arm_m3_Hwi_excHookFuncs__A)
                  0000b928    00000008     spiloopback_pem4f.oem4f (.const:ti_sysbios_knl_Idle_funcList__C)
                  0000b930    00000008     spiloopback_pem4f.oem4f (.const:xdc_runtime_Startup_firstFxns__C)
                  0000b938    00000008     spiloopback_pem4f.oem4f (.const:xdc_runtime_Startup_lastFxns__C)
                  0000b940    00000005     drivers_MSP432P401R.aem4f : UARTMSP432.oem4f (.const:.string)
                  0000b945    00000001     spiloopback_pem4f.oem4f (.const:xdc_runtime_Error_policy__C)
                  0000b946    00000002     spiloopback_pem4f.oem4f (.const:ti_sysbios_family_arm_m3_Hwi_Module__loggerDefined__C)
                  0000b948    00000004     spiloopback_pem4f.oem4f (.const:ti_sysbios_family_arm_m3_Hwi_E_NMI__C)
                  0000b94c    00000004     spiloopback_pem4f.oem4f (.const:ti_sysbios_family_arm_m3_Hwi_E_alreadyDefined__C)
                  0000b950    00000004     spiloopback_pem4f.oem4f (.const:ti_sysbios_family_arm_m3_Hwi_E_busFault__C)
                  0000b954    00000004     spiloopback_pem4f.oem4f (.const:ti_sysbios_family_arm_m3_Hwi_E_debugMon__C)
                  0000b958    00000004     spiloopback_pem4f.oem4f (.const:ti_sysbios_family_arm_m3_Hwi_E_hardFault__C)
                  0000b95c    00000004     spiloopback_pem4f.oem4f (.const:ti_sysbios_family_arm_m3_Hwi_E_memFault__C)
                  0000b960    00000004     spiloopback_pem4f.oem4f (.const:ti_sysbios_family_arm_m3_Hwi_E_noIsr__C)
                  0000b964    00000004     spiloopback_pem4f.oem4f (.const:ti_sysbios_family_arm_m3_Hwi_E_reserved__C)
                  0000b968    00000004     spiloopback_pem4f.oem4f (.const:ti_sysbios_family_arm_m3_Hwi_E_svCall__C)
                  0000b96c    00000004     spiloopback_pem4f.oem4f (.const:ti_sysbios_family_arm_m3_Hwi_E_usageFault__C)
                  0000b970    00000004     spiloopback_pem4f.oem4f (.const:ti_sysbios_family_arm_m3_Hwi_LD_end__C)
                  0000b974    00000004     spiloopback_pem4f.oem4f (.const:ti_sysbios_family_arm_m3_Hwi_LM_begin__C)
                  0000b978    00000004     spiloopback_pem4f.oem4f (.const:ti_sysbios_family_arm_m3_Hwi_Module__diagsEnabled__C)
                  0000b97c    00000004     spiloopback_pem4f.oem4f (.const:ti_sysbios_family_arm_m3_Hwi_Module__diagsIncluded__C)
                  0000b980    00000004     spiloopback_pem4f.oem4f (.const:ti_sysbios_family_arm_m3_Hwi_Module__diagsMask__C)
                  0000b984    00000004     spiloopback_pem4f.oem4f (.const:ti_sysbios_family_arm_m3_Hwi_Module__loggerFxn1__C)
                  0000b988    00000004     spiloopback_pem4f.oem4f (.const:ti_sysbios_family_arm_m3_Hwi_Module__loggerFxn8__C)
                  0000b98c    00000004     spiloopback_pem4f.oem4f (.const:ti_sysbios_family_arm_m3_Hwi_Module__loggerObj__C)
                  0000b990    00000004     spiloopback_pem4f.oem4f (.const:ti_sysbios_family_arm_m3_Hwi_NUM_INTERRUPTS__C)
                  0000b994    00000004     spiloopback_pem4f.oem4f (.const:ti_sysbios_family_arm_m3_Hwi_Object__count__C)
                  0000b998    00000004     spiloopback_pem4f.oem4f (.const:ti_sysbios_family_arm_m3_Hwi_ccr__C)
                  0000b99c    00000004     spiloopback_pem4f.oem4f (.const:ti_sysbios_family_arm_m3_Hwi_excHandlerFunc__C)
                  0000b9a0    00000004     spiloopback_pem4f.oem4f (.const:ti_sysbios_family_arm_m3_Hwi_excHookFuncs__C)
                  0000b9a4    00000004     spiloopback_pem4f.oem4f (.const:ti_sysbios_family_arm_m3_Hwi_nullIsrFunc__C)
                  0000b9a8    00000004     spiloopback_pem4f.oem4f (.const:ti_sysbios_family_arm_m3_Hwi_priGroup__C)
                  0000b9ac    00000004     spiloopback_pem4f.oem4f (.const:ti_sysbios_family_arm_m3_Timer_E_cannotSupport__C)
                  0000b9b0    00000004     spiloopback_pem4f.oem4f (.const:ti_sysbios_family_arm_m3_Timer_startupNeeded__C)
                  0000b9b4    00000004     spiloopback_pem4f.oem4f (.const:ti_sysbios_family_arm_msp432_Timer_numTimerDevices__C)
                  0000b9b8    00000004     spiloopback_pem4f.oem4f (.const:ti_sysbios_family_arm_msp432_Timer_startupNeeded__C)
                  0000b9bc    00000004     spiloopback_pem4f.oem4f (.const:ti_sysbios_gates_GateMutex_A_badContext__C)
                  0000b9c0    00000004     spiloopback_pem4f.oem4f (.const:ti_sysbios_gates_GateMutex_Instance_State_sem__O)
                  0000b9c4    00000004     spiloopback_pem4f.oem4f (.const:ti_sysbios_gates_GateMutex_Module__diagsEnabled__C)
                  0000b9c8    00000004     spiloopback_pem4f.oem4f (.const:ti_sysbios_gates_GateMutex_Module__diagsIncluded__C)
                  0000b9cc    00000004     spiloopback_pem4f.oem4f (.const:ti_sysbios_gates_GateMutex_Module__diagsMask__C)
                  0000b9d0    00000004     spiloopback_pem4f.oem4f (.const:ti_sysbios_hal_Hwi_E_stackOverflow__C)
                  0000b9d4    00000004     spiloopback_pem4f.oem4f (.const:ti_sysbios_heaps_HeapMem_A_align__C)
                  0000b9d8    00000004     spiloopback_pem4f.oem4f (.const:ti_sysbios_heaps_HeapMem_A_heapSize__C)
                  0000b9dc    00000004     spiloopback_pem4f.oem4f (.const:ti_sysbios_heaps_HeapMem_A_invalidFree__C)
                  0000b9e0    00000004     spiloopback_pem4f.oem4f (.const:ti_sysbios_heaps_HeapMem_A_zeroBlock__C)
                  0000b9e4    00000004     spiloopback_pem4f.oem4f (.const:ti_sysbios_heaps_HeapMem_E_memory__C)
                  0000b9e8    00000004     spiloopback_pem4f.oem4f (.const:ti_sysbios_heaps_HeapMem_Module__diagsEnabled__C)
                  0000b9ec    00000004     spiloopback_pem4f.oem4f (.const:ti_sysbios_heaps_HeapMem_Module__diagsIncluded__C)
                  0000b9f0    00000004     spiloopback_pem4f.oem4f (.const:ti_sysbios_heaps_HeapMem_Module__diagsMask__C)
                  0000b9f4    00000004     spiloopback_pem4f.oem4f (.const:ti_sysbios_heaps_HeapMem_Module__gateObj__C)
                  0000b9f8    00000004     spiloopback_pem4f.oem4f (.const:ti_sysbios_heaps_HeapMem_Object__count__C)
                  0000b9fc    00000004     spiloopback_pem4f.oem4f (.const:ti_sysbios_heaps_HeapMem_reqAlign__C)
                  0000ba00    00000004     spiloopback_pem4f.oem4f (.const:ti_sysbios_knl_Clock_A_badThreadType__C)
                  0000ba04    00000004     spiloopback_pem4f.oem4f (.const:ti_sysbios_knl_Clock_LM_begin__C)
                  0000ba08    00000004     spiloopback_pem4f.oem4f (.const:ti_sysbios_knl_Clock_LM_tick__C)
                  0000ba0c    00000004     spiloopback_pem4f.oem4f (.const:ti_sysbios_knl_Clock_LW_delayed__C)
                  0000ba10    00000004     spiloopback_pem4f.oem4f (.const:ti_sysbios_knl_Clock_Module_State_clockQ__O)
                  0000ba14    00000004     spiloopback_pem4f.oem4f (.const:ti_sysbios_knl_Clock_Module__diagsEnabled__C)
                  0000ba18    00000004     spiloopback_pem4f.oem4f (.const:ti_sysbios_knl_Clock_Module__diagsIncluded__C)
                  0000ba1c    00000004     spiloopback_pem4f.oem4f (.const:ti_sysbios_knl_Clock_Module__diagsMask__C)
                  0000ba20    00000004     spiloopback_pem4f.oem4f (.const:ti_sysbios_knl_Clock_Module__loggerFxn1__C)
                  0000ba24    00000004     spiloopback_pem4f.oem4f (.const:ti_sysbios_knl_Clock_Module__loggerFxn2__C)
                  0000ba28    00000004     spiloopback_pem4f.oem4f (.const:ti_sysbios_knl_Clock_Module__loggerObj__C)
                  0000ba2c    00000004     spiloopback_pem4f.oem4f (.const:ti_sysbios_knl_Semaphore_A_badContext__C)
                  0000ba30    00000004     spiloopback_pem4f.oem4f (.const:ti_sysbios_knl_Semaphore_A_noEvents__C)
                  0000ba34    00000004     spiloopback_pem4f.oem4f (.const:ti_sysbios_knl_Semaphore_A_overflow__C)
                  0000ba38    00000004     spiloopback_pem4f.oem4f (.const:ti_sysbios_knl_Semaphore_A_pendTaskDisabled__C)
                  0000ba3c    00000004     spiloopback_pem4f.oem4f (.const:ti_sysbios_knl_Semaphore_Instance_State_pendQ__O)
                  0000ba40    00000004     spiloopback_pem4f.oem4f (.const:ti_sysbios_knl_Semaphore_LM_pend__C)
                  0000ba44    00000004     spiloopback_pem4f.oem4f (.const:ti_sysbios_knl_Semaphore_LM_post__C)
                  0000ba48    00000004     spiloopback_pem4f.oem4f (.const:ti_sysbios_knl_Semaphore_Module__diagsEnabled__C)
                  0000ba4c    00000004     spiloopback_pem4f.oem4f (.const:ti_sysbios_knl_Semaphore_Module__diagsIncluded__C)
                  0000ba50    00000004     spiloopback_pem4f.oem4f (.const:ti_sysbios_knl_Semaphore_Module__diagsMask__C)
                  0000ba54    00000004     spiloopback_pem4f.oem4f (.const:ti_sysbios_knl_Semaphore_Module__loggerFxn2__C)
                  0000ba58    00000004     spiloopback_pem4f.oem4f (.const:ti_sysbios_knl_Semaphore_Module__loggerFxn4__C)
                  0000ba5c    00000004     spiloopback_pem4f.oem4f (.const:ti_sysbios_knl_Semaphore_Module__loggerObj__C)
                  0000ba60    00000004     spiloopback_pem4f.oem4f (.const:ti_sysbios_knl_Swi_LD_end__C)
                  0000ba64    00000004     spiloopback_pem4f.oem4f (.const:ti_sysbios_knl_Swi_LM_begin__C)
                  0000ba68    00000004     spiloopback_pem4f.oem4f (.const:ti_sysbios_knl_Swi_LM_post__C)
                  0000ba6c    00000004     spiloopback_pem4f.oem4f (.const:ti_sysbios_knl_Swi_Module__diagsEnabled__C)
                  0000ba70    00000004     spiloopback_pem4f.oem4f (.const:ti_sysbios_knl_Swi_Module__diagsIncluded__C)
                  0000ba74    00000004     spiloopback_pem4f.oem4f (.const:ti_sysbios_knl_Swi_Module__diagsMask__C)
                  0000ba78    00000004     spiloopback_pem4f.oem4f (.const:ti_sysbios_knl_Swi_Module__loggerFxn1__C)
                  0000ba7c    00000004     spiloopback_pem4f.oem4f (.const:ti_sysbios_knl_Swi_Module__loggerFxn4__C)
                  0000ba80    00000004     spiloopback_pem4f.oem4f (.const:ti_sysbios_knl_Swi_Module__loggerObj__C)
                  0000ba84    00000004     spiloopback_pem4f.oem4f (.const:ti_sysbios_knl_Swi_Object__count__C)
                  0000ba88    00000004     spiloopback_pem4f.oem4f (.const:ti_sysbios_knl_Task_E_spOutOfBounds__C)
                  0000ba8c    00000004     spiloopback_pem4f.oem4f (.const:ti_sysbios_knl_Task_E_stackOverflow__C)
                  0000ba90    00000004     spiloopback_pem4f.oem4f (.const:ti_sysbios_knl_Task_LD_block__C)
                  0000ba94    00000004     spiloopback_pem4f.oem4f (.const:ti_sysbios_knl_Task_LD_exit__C)
                  0000ba98    00000004     spiloopback_pem4f.oem4f (.const:ti_sysbios_knl_Task_LD_ready__C)
                  0000ba9c    00000004     spiloopback_pem4f.oem4f (.const:ti_sysbios_knl_Task_LM_switch__C)
                  0000baa0    00000004     spiloopback_pem4f.oem4f (.const:ti_sysbios_knl_Task_Module_State_inactiveQ__O)
                  0000baa4    00000004     spiloopback_pem4f.oem4f (.const:ti_sysbios_knl_Task_Module__diagsEnabled__C)
                  0000baa8    00000004     spiloopback_pem4f.oem4f (.const:ti_sysbios_knl_Task_Module__diagsIncluded__C)
                  0000baac    00000004     spiloopback_pem4f.oem4f (.const:ti_sysbios_knl_Task_Module__diagsMask__C)
                  0000bab0    00000004     spiloopback_pem4f.oem4f (.const:ti_sysbios_knl_Task_Module__loggerFxn2__C)
                  0000bab4    00000004     spiloopback_pem4f.oem4f (.const:ti_sysbios_knl_Task_Module__loggerFxn4__C)
                  0000bab8    00000004     spiloopback_pem4f.oem4f (.const:ti_sysbios_knl_Task_Module__loggerObj__C)
                  0000babc    00000004     spiloopback_pem4f.oem4f (.const:ti_sysbios_knl_Task_Object__count__C)
                  0000bac0    00000004     spiloopback_pem4f.oem4f (.const:ti_sysbios_knl_Task_allBlockedFunc__C)
                  0000bac4    00000004     spiloopback_pem4f.oem4f (.const:ti_sysbios_knl_Task_numConstructedTasks__C)
                  0000bac8    00000004     spiloopback_pem4f.oem4f (.const:ti_sysbios_utils_Load_LS_cpuLoad__C)
                  0000bacc    00000004     spiloopback_pem4f.oem4f (.const:ti_sysbios_utils_Load_Module__diagsEnabled__C)
                  0000bad0    00000004     spiloopback_pem4f.oem4f (.const:ti_sysbios_utils_Load_Module__diagsIncluded__C)
                  0000bad4    00000004     spiloopback_pem4f.oem4f (.const:ti_sysbios_utils_Load_Module__diagsMask__C)
                  0000bad8    00000004     spiloopback_pem4f.oem4f (.const:ti_sysbios_utils_Load_Module__loggerFxn1__C)
                  0000badc    00000004     spiloopback_pem4f.oem4f (.const:ti_sysbios_utils_Load_Module__loggerObj__C)
                  0000bae0    00000004     spiloopback_pem4f.oem4f (.const:ti_sysbios_utils_Load_postUpdate__C)
                  0000bae4    00000004     spiloopback_pem4f.oem4f (.const:ti_sysbios_utils_Load_windowInMs__C)
                  0000bae8    00000004     spiloopback_pem4f.oem4f (.const:ti_uia_loggers_LoggerStopMode_Module__diagsEnabled__C)
                  0000baec    00000004     spiloopback_pem4f.oem4f (.const:ti_uia_loggers_LoggerStopMode_Module__diagsIncluded__C)
                  0000baf0    00000004     spiloopback_pem4f.oem4f (.const:ti_uia_loggers_LoggerStopMode_Module__diagsMask__C)
                  0000baf4    00000004     spiloopback_pem4f.oem4f (.const:ti_uia_loggers_LoggerStopMode_Object__count__C)
                  0000baf8    00000004     spiloopback_pem4f.oem4f (.const:ti_uia_runtime_ILoggerSnapshot_Interface__BASE__C)
                  0000bafc    00000004     spiloopback_pem4f.oem4f (.const:ti_uia_runtime_IUIATransfer_Interface__BASE__C)
                  0000bb00    00000004     spiloopback_pem4f.oem4f (.const:xdc_runtime_Assert_E_assertFailed__C)
                  0000bb04    00000004     spiloopback_pem4f.oem4f (.const:xdc_runtime_Core_A_initializedParams__C)
                  0000bb08    00000004     spiloopback_pem4f.oem4f (.const:xdc_runtime_Core_Module__diagsEnabled__C)
                  0000bb0c    00000004     spiloopback_pem4f.oem4f (.const:xdc_runtime_Core_Module__diagsIncluded__C)
                  0000bb10    00000004     spiloopback_pem4f.oem4f (.const:xdc_runtime_Core_Module__diagsMask__C)
                  0000bb14    00000004     spiloopback_pem4f.oem4f (.const:xdc_runtime_Error_E_memory__C)
                  0000bb18    00000004     spiloopback_pem4f.oem4f (.const:xdc_runtime_Error_Module__diagsEnabled__C)
                  0000bb1c    00000004     spiloopback_pem4f.oem4f (.const:xdc_runtime_Error_Module__diagsIncluded__C)
                  0000bb20    00000004     spiloopback_pem4f.oem4f (.const:xdc_runtime_Error_Module__diagsMask__C)
                  0000bb24    00000004     spiloopback_pem4f.oem4f (.const:xdc_runtime_Error_Module__loggerFxn8__C)
                  0000bb28    00000004     spiloopback_pem4f.oem4f (.const:xdc_runtime_Error_Module__loggerObj__C)
                  0000bb2c    00000004     spiloopback_pem4f.oem4f (.const:xdc_runtime_Error_policyFxn__C)
                  0000bb30    00000004     spiloopback_pem4f.oem4f (.const:xdc_runtime_Error_raiseHook__C)
                  0000bb34    00000004     spiloopback_pem4f.oem4f (.const:xdc_runtime_IFilterLogger_Interface__BASE__C)
                  0000bb38    00000004     spiloopback_pem4f.oem4f (.const:xdc_runtime_IGateProvider_Interface__BASE__C)
                  0000bb3c    00000004     spiloopback_pem4f.oem4f (.const:xdc_runtime_IHeap_Interface__BASE__C)
                  0000bb40    00000004     spiloopback_pem4f.oem4f (.const:xdc_runtime_ILogger_Interface__BASE__C)
                  0000bb44    00000004     spiloopback_pem4f.oem4f (.const:xdc_runtime_IModule_Interface__BASE__C)
                  0000bb48    00000004     spiloopback_pem4f.oem4f (.const:xdc_runtime_Log_L_error__C)
                  0000bb4c    00000004     spiloopback_pem4f.oem4f (.const:xdc_runtime_Memory_defaultHeapInstance__C)
                  0000bb50    00000004     spiloopback_pem4f.oem4f (.const:xdc_runtime_Startup_execImpl__C)
                  0000bb54    00000004     spiloopback_pem4f.oem4f (.const:xdc_runtime_Startup_lastFxns__A)
                  0000bb58    00000004     spiloopback_pem4f.oem4f (.const:xdc_runtime_Startup_maxPasses__C)
                  0000bb5c    00000004     spiloopback_pem4f.oem4f (.const:xdc_runtime_Startup_sfxnRts__C)
                  0000bb60    00000004     spiloopback_pem4f.oem4f (.const:xdc_runtime_Startup_sfxnTab__C)
                  0000bb64    00000004     spiloopback_pem4f.oem4f (.const:xdc_runtime_System_Module__gateObj__C)
                  0000bb68    00000004     spiloopback_pem4f.oem4f (.const:xdc_runtime_System_abortFxn__C)
                  0000bb6c    00000004     spiloopback_pem4f.oem4f (.const:xdc_runtime_System_exitFxn__C)
                  0000bb70    00000004     spiloopback_pem4f.oem4f (.const:xdc_runtime_System_extendFxn__C)
                  0000bb74    00000004     spiloopback_pem4f.oem4f (.const:xdc_runtime_System_maxAtexitHandlers__C)
                  0000bb78    00000004     spiloopback_pem4f.oem4f (.const:xdc_runtime_Text_charTab__C)
                  0000bb7c    00000004     spiloopback_pem4f.oem4f (.const:xdc_runtime_Text_nameEmpty__C)
                  0000bb80    00000004     spiloopback_pem4f.oem4f (.const:xdc_runtime_Text_nameStatic__C)
                  0000bb84    00000004     spiloopback_pem4f.oem4f (.const:xdc_runtime_Text_nameUnknown__C)
                  0000bb88    00000004     spiloopback_pem4f.oem4f (.const:xdc_runtime_Text_nodeTab__C)
                  0000bb8c    00000004     spiloopback_pem4f.oem4f (.const:xdc_runtime_Text_visitRopeFxn__C)
                  0000bb90    00000002     spiloopback_pem4f.oem4f (.const:ti_sysbios_family_arm_m3_Timer_Module__id__C)
                  0000bb92    00000002     spiloopback_pem4f.oem4f (.const:ti_sysbios_family_arm_m3_TimestampProvider_configTimer__C)
                  0000bb94    00000002     spiloopback_pem4f.oem4f (.const:ti_sysbios_gates_GateMutex_Module__id__C)
                  0000bb96    00000002     spiloopback_pem4f.oem4f (.const:ti_sysbios_hal_Hwi_Module__id__C)
                  0000bb98    00000002     spiloopback_pem4f.oem4f (.const:ti_sysbios_heaps_HeapMem_Module__id__C)
                  0000bb9a    00000002     spiloopback_pem4f.oem4f (.const:ti_sysbios_knl_Clock_Module__id__C)
                  0000bb9c    00000002     spiloopback_pem4f.oem4f (.const:ti_sysbios_knl_Clock_Module__loggerDefined__C)
                  0000bb9e    00000002     spiloopback_pem4f.oem4f (.const:ti_sysbios_knl_Semaphore_Module__id__C)
                  0000bba0    00000002     spiloopback_pem4f.oem4f (.const:ti_sysbios_knl_Semaphore_Module__loggerDefined__C)
                  0000bba2    00000002     spiloopback_pem4f.oem4f (.const:ti_sysbios_knl_Swi_Module__id__C)
                  0000bba4    00000002     spiloopback_pem4f.oem4f (.const:ti_sysbios_knl_Swi_Module__loggerDefined__C)
                  0000bba6    00000002     spiloopback_pem4f.oem4f (.const:ti_sysbios_knl_Task_Module__id__C)
                  0000bba8    00000002     spiloopback_pem4f.oem4f (.const:ti_sysbios_knl_Task_Module__loggerDefined__C)
                  0000bbaa    00000002     spiloopback_pem4f.oem4f (.const:ti_sysbios_utils_Load_Module__id__C)
                  0000bbac    00000002     spiloopback_pem4f.oem4f (.const:ti_sysbios_utils_Load_Module__loggerDefined__C)
                  0000bbae    00000002     spiloopback_pem4f.oem4f (.const:ti_sysbios_utils_Load_updateInIdle__C)
                  0000bbb0    00000002     spiloopback_pem4f.oem4f (.const:ti_uia_loggers_LoggerStopMode_Module__id__C)
                  0000bbb2    00000002     spiloopback_pem4f.oem4f (.const:ti_uia_loggers_LoggerStopMode_isTimestampEnabled__C)
                  0000bbb4    00000002     spiloopback_pem4f.oem4f (.const:xdc_runtime_Core_Module__id__C)
                  0000bbb6    00000002     spiloopback_pem4f.oem4f (.const:xdc_runtime_Error_Module__loggerDefined__C)
                  0000bbb8    00000002     spiloopback_pem4f.oem4f (.const:xdc_runtime_Error_maxDepth__C)
                  0000bbba    00000002     spiloopback_pem4f.oem4f (.const:xdc_runtime_Memory_Module__id__C)
                  0000bbbc    00000002     spiloopback_pem4f.oem4f (.const:xdc_runtime_Text_charCnt__C)
                  0000bbbe    00000002     spiloopback_pem4f.oem4f (.const:xdc_runtime_Text_isLoaded__C)
                  0000bbc0    00000002     spiloopback_pem4f.oem4f (.const:xdc_runtime_Text_registryModsLastId__C)
                  0000bbc2    00000002     spiloopback_pem4f.oem4f (.const:xdc_runtime_Text_unnamedModsLastId__C)

.cinit     0    0000bbc8    00000378     
                  0000bbc8    00000340     (.cinit..data.load) [load image, compression = lzss]
                  0000bf08    0000000c     (__TI_handler_table)
                  0000bf14    00000004     --HOLE-- [fill = 0]
                  0000bf18    00000008     (.cinit..bss.load) [load image, compression = zero_init]
                  0000bf20    00000008     (.cinit..vecs.load) [load image, compression = zero_init]
                  0000bf28    00000018     (__TI_cinit_table)

.resetVecs 
*          0    00000000    0000003c     
                  00000000    0000003c     spiloopback_pem4f.oem4f (.resetVecs)

.bss       0    20000200    000022b0     UNINITIALIZED
                  20000200    00000a00     spiloopback_pem4f.oem4f (.bss:taskStackSection)
                  20000c00    00000800     (.common:ti_sysbios_heaps_HeapMem_Instance_State_0_buf__A)
                  20001400    00000400     (.common:ti_uia_loggers_LoggerStopMode_Instance_State_1_packetArray__A)
                  20001800    00000400     (.common:ti_uia_loggers_LoggerStopMode_Instance_State_2_packetArray__A)
                  20001c00    00000200     (.common:ti_uia_loggers_LoggerStopMode_Instance_State_0_packetArray__A)
                  20001e00    00000140     (.common:ti_sysbios_family_arm_m3_Hwi_dispatchTable)
                  20001f40    00000120     rtsv7M4_T_le_v4SPD16_eabi.lib : trgmsg.c.obj (.bss:_CIOBUF_)
                  20002060    00000100     (.common:uartMSP432Objects)
                  20002160    000000a0     (.common:__TI_tmpnams)
                  20002200    00000080     MSP_EXP432P401R.obj (.bss:dmaControlTable)
                  20002280    00000070     (.common:spiMSP432DMAObjects)
                  200022f0    00000040     (.common:uartMSP432RingBuffer)
                  20002330    00000030     drivers_MSP432P401R.aem4f : GPIOMSP432.oem4f (.bss:gpioCallbackInfo)
                  20002360    00000014     (.common:masterTransaction)
                  20002374    00000008     (.common:parmbuf)
                  2000237c    00000004     (.common:masterRxBuffer)
                  20002380    00000030     (.common:ti_uia_loggers_LoggerStopMode_Instance_State_0_hdr__A)
                  200023b0    00000024     (.common:uartParams)
                  200023d4    00000014     (.common:uart_tx_buffer)
                  200023e8    00000014     (.common:ui32_8_convert)
                  200023fc    00000004     (.common:masterSpi)
                  20002400    00000030     (.common:ti_uia_loggers_LoggerStopMode_Instance_State_1_hdr__A)
                  20002430    00000008     (.common:udmaMSP432Object)
                  20002438    00000004     (.common:masterTxBuffer)
                  2000243c    00000004     (.common:transferOK)
                  20002440    00000004     (.common:uart)
                  20002444    0000003c     --HOLE--
                  20002480    00000030     (.common:ti_uia_loggers_LoggerStopMode_Instance_State_2_hdr__A)

.data      0    200024b0    0000094a     UNINITIALIZED
                  200024b0    000000f0     rtsv7M4_T_le_v4SPD16_eabi.lib : defs.c.obj (.data:_ftable)
                  200025a0    000000e4     spiloopback_pem4f.oem4f (.data:ti_sysbios_knl_Task_Object__table__V)
                  20002684    0000009c     drivers_MSP432P401R.aem4f : PowerMSP432.oem4f (.data:PowerMSP432_perfLevels)
                  20002720    0000009c     spiloopback_pem4f.oem4f (.data:ti_uia_loggers_LoggerStopMode_Object__table__V)
                  200027bc    00000098     spiloopback_pem4f.oem4f (.data:ti_sysbios_utils_Load_Module__state__V)
                  20002854    00000080     spiloopback_pem4f.oem4f (.data:ti_sysbios_knl_Swi_Module_State_0_readyQ__A)
                  200028d4    00000080     spiloopback_pem4f.oem4f (.data:ti_sysbios_knl_Task_Module_State_0_readyQ__A)
                  20002954    00000078     rtsv7M4_T_le_v4SPD16_eabi.lib : write.c.obj (.data:_device)
                  200029cc    00000050                                   : write.c.obj (.data:_stream)
                  20002a1c    0000004c     spiloopback_pem4f.oem4f (.data:ti_sysbios_family_arm_msp432_Timer_Object__table__V)
                  20002a68    00000044     spiloopback_pem4f.oem4f (.data:ti_sysbios_knl_Task_Module__state__V)
                  20002aac    00000038     spiloopback_pem4f.oem4f (.data:ti_sysbios_gates_GateMutex_Object__table__V)
                  20002ae4    00000034     spiloopback_pem4f.oem4f (.data:ti_sysbios_family_arm_m3_Hwi_Module__state__V)
                  20002b18    00000030     msp432p4xx_driverlib.lib : gpio.o (.data:GPIO_PORT_TO_BASE)
                  20002b48    00000030     spiloopback_pem4f.oem4f (.data:ti_sysbios_family_arm_m3_Hwi_Object__table__V)
                  20002b78    00000030     spiloopback_pem4f.oem4f (.data:ti_sysbios_family_arm_m3_Timer_Object__table__V)
                  20002ba8    00000030     spiloopback_pem4f.oem4f (.data:ti_sysbios_knl_Swi_Object__table__V)
                  20002bd8    0000002c     spiloopback_pem4f.oem4f (.data:ti_sysbios_knl_Clock_Module__state__V)
                  20002c04    00000028     drivers_MSP432P401R.aem4f : PowerMSP432.oem4f (.data:PowerMSP432_module)
                  20002c2c    00000028     spiloopback_pem4f.oem4f (.data:ti_sysbios_knl_Semaphore_Object__table__V)
                  20002c54    00000024     spiloopback_pem4f.oem4f (.data:ti_sysbios_BIOS_Module__state__V)
                  20002c78    00000020     spiloopback_pem4f.oem4f (.data:ti_sysbios_family_arm_msp432_Timer_Module_State_0_device__A)
                  20002c98    0000001c     spiloopback_pem4f.oem4f (.data:ti_sysbios_knl_Swi_Module__state__V)
                  20002cb4    00000018     spiloopback_pem4f.oem4f (.data:ti_sysbios_heaps_HeapMem_Object__table__V)
                  20002ccc    00000014     MSP_EXP432P401R.obj (.data:gpioPinConfigs)
                  20002ce0    00000010     rtsv7M4_T_le_v4SPD16_eabi.lib : defs.c.obj (.data)
                  20002cf0    00000010     spiloopback_pem4f.oem4f (.data:ti_sysbios_family_arm_msp432_Timer_Module_State_0_handles__A)
                  20002d00    0000000c     rtsv7M4_T_le_v4SPD16_eabi.lib : exit.c.obj (.data:$O1$$)
                  20002d0c    0000000c     spiloopback_pem4f.oem4f (.data:ti_sysbios_family_arm_m3_Timer_Module__state__V)
                  20002d18    0000000c     spiloopback_pem4f.oem4f (.data:ti_sysbios_family_arm_msp432_ClockFreqs_Module__state__V)
                  20002d24    0000000c     spiloopback_pem4f.oem4f (.data:ti_sysbios_family_arm_msp432_Timer_Module__state__V)
                  20002d30    0000000c     spiloopback_pem4f.oem4f (.data:ti_sysbios_knl_Task_Module__root__V)
                  20002d3c    0000000c     spiloopback_pem4f.oem4f (.data:ti_uia_runtime_QueueDescriptor_Module__state__V)
                  20002d48    00000008     rtsv7M4_T_le_v4SPD16_eabi.lib : _lock.c.obj (.data:$O1$$)
                  20002d50    00000008     drivers_MSP432P401R.aem4f : UDMAMSP432.oem4f (.data)
                  20002d58    00000008     MSP_EXP432P401R.obj (.data:gpioCallbackFunctions)
                  20002d60    00000008     ti.uia.runtime.aem4f : QueueDescriptor.oem4f (.data)
                  20002d68    00000008     spiloopback_pem4f.oem4f (.data:ti_sysbios_family_arm_m3_Hwi_Module__root__V)
                  20002d70    00000008     spiloopback_pem4f.oem4f (.data:ti_sysbios_gates_GateHwi_Module__root__V)
                  20002d78    00000008     spiloopback_pem4f.oem4f (.data:ti_sysbios_gates_GateMutex_Module__root__V)
                  20002d80    00000008     spiloopback_pem4f.oem4f (.data:ti_sysbios_heaps_HeapMem_Module__root__V)
                  20002d88    00000008     spiloopback_pem4f.oem4f (.data:ti_sysbios_knl_Clock_Module__root__V)
                  20002d90    00000008     spiloopback_pem4f.oem4f (.data:ti_sysbios_knl_Queue_Module__root__V)
                  20002d98    00000008     spiloopback_pem4f.oem4f (.data:ti_sysbios_knl_Semaphore_Module__root__V)
                  20002da0    00000008     spiloopback_pem4f.oem4f (.data:ti_uia_loggers_LoggerStopMode_Module__root__V)
                  20002da8    00000008     spiloopback_pem4f.oem4f (.data:xdc_runtime_Registry_Module__state__V)
                  20002db0    00000008     spiloopback_pem4f.oem4f (.data:xdc_runtime_Startup_Module__state__V)
                  20002db8    00000008     spiloopback_pem4f.oem4f (.data:xdc_runtime_System_Module_State_0_atexitHandlers__A)
                  20002dc0    00000008     spiloopback_pem4f.oem4f (.data:xdc_runtime_System_Module__state__V)
                  20002dc8    00000004     drivers_MSP432P401R.aem4f : SPI.oem4f (.data)
                  20002dcc    00000004                               : UART.oem4f (.data)
                  20002dd0    00000004     rtsv7M4_T_le_v4SPD16_eabi.lib : stkdepth_vars.c.obj (.data)
                  20002dd4    00000004     spiloopback_pem4f.oem4f (.data:ti_sysbios_family_arm_m3_Hwi_Module_State_0_excContext__A)
                  20002dd8    00000004     spiloopback_pem4f.oem4f (.data:ti_sysbios_family_arm_m3_Hwi_Module_State_0_excStack__A)
                  20002ddc    00000004     spiloopback_pem4f.oem4f (.data:ti_sysbios_family_arm_m3_TimestampProvider_Module__state__V)
                  20002de0    00000004     spiloopback_pem4f.oem4f (.data:ti_sysbios_gates_GateHwi_Object__table__V)
                  20002de4    00000004     spiloopback_pem4f.oem4f (.data:ti_sysbios_knl_Task_Module_State_0_idleTask__A)
                  20002de8    00000004     spiloopback_pem4f.oem4f (.data:ti_sysbios_utils_Load_Module_State_0_runningTask__A)
                  20002dec    00000004     spiloopback_pem4f.oem4f (.data:ti_sysbios_utils_Load_Module_State_0_taskStartTime__A)
                  20002df0    00000004     spiloopback_pem4f.oem4f (.data:xdc_runtime_Memory_Module__state__V)
                  20002df4    00000002     spiloopback_pem4f.oem4f (.data:ti_sysbios_family_arm_m3_Hwi_Module_State_0_excActive__A)
                  20002df6    00000002     spiloopback_pem4f.oem4f (.data:xdc_runtime_Error_Module__state__V)
                  20002df8    00000001     MSP432_UART_TX.obj (.data)
                  20002df9    00000001     drivers_MSP432P401R.aem4f : GPIOMSP432.oem4f (.data)

.stack     0    2000fd00    00000300     UNINITIALIZED
                  2000fd00    00000300     --HOLE--

.bootVecs 
*          0    00000000    00000008     DSECT
                  00000000    00000008     boot.aem4f : boot.oem4f (.bootVecs)

.vecs      0    20000000    00000140     UNINITIALIZED
                  20000000    00000140     spiloopback_pem4f.oem4f (.vecs)

xdc.meta   0    00000000    000000f1     COPY SECTION
                  00000000    000000f1     spiloopback_pem4f.oem4f (xdc.meta)

.binit     0    00000000    00000000     

MODULE SUMMARY

       Module                       code    ro data   rw data
       ------                       ----    -------   -------
    .\
       MSP_EXP432P401R.obj          80      360       596    
       MSP432_SPI.obj               640     0         36     
       AFE4403.obj                  240     360       0      
       MSP432_UART_TX.obj           464     0         41     
       MSP432_UART.obj              192     0         40     
       spiloopback.obj              30      0         0      
       MSP432_GPIO.obj              24      0         0      
    +--+----------------------------+-------+---------+---------+
       Total:                       1670    720       713    
                                                             
    D:\TIDA\CCS Codes\spiloopback_MSP_EXP432P401R_TI\Debug\configPkg\package\cfg\
       spiloopback_pem4f.oem4f      3374    10179     9552   
    +--+----------------------------+-------+---------+---------+
       Total:                       3374    10179     9552   
                                                             
    C:/ti/tirtos_msp43x_2_20_00_06/products/msp432_driverlib_3_21_00_05/driverlib/MSP432P4xx/ccs/msp432p4xx_driverlib.lib
       pcm.o                        1214    0         0      
       dma.o                        628     0         0      
       gpio.o                       552     0         48     
       spi.o                        402     0         0      
       uart.o                       328     0         0      
       cs.o                         260     0         0      
       flash.o                      156     0         0      
       rtc_c.o                      72      0         0      
       wdt_a.o                      44      0         0      
       cpu.o                        28      0         0      
    +--+----------------------------+-------+---------+---------+
       Total:                       3684    0         48     
                                                             
    C:/ti/tirtos_msp43x_2_20_00_06/products/tidrivers_msp43x_2_20_00_08/packages/ti/drivers/lib/drivers_MSP432P401R.aem4f
       UARTMSP432.oem4f             2630    81        0      
       PowerMSP432.oem4f            1212    0         196    
       SPIMSP432DMA.oem4f           962     40        0      
       GPIOMSP432.oem4f             620     12        49     
       RingBuf.oem4f                184     0         0      
       UDMAMSP432.oem4f             172     0         8      
       UART.oem4f                   138     36        4      
       SPI.oem4f                    134     32        4      
       List.oem4f                   72      0         0      
    +--+----------------------------+-------+---------+---------+
       Total:                       6124    201       261    
                                                             
    C:/ti/tirtos_msp43x_2_20_00_06/products/tidrivers_msp43x_2_20_00_08/packages/ti/drivers/lib/power_tirtos_MSP432P401R.aem4f
       PowerMSP432_tirtos.oem4f     106     0         0      
    +--+----------------------------+-------+---------+---------+
       Total:                       106     0         0      
                                                             
    C:/ti/tirtos_msp43x_2_20_00_06/products/tidrivers_msp43x_2_20_00_08/packages/ti/drivers/ports/lib/tirtosport.aem4f
       ClockP_tirtos.oem4f          148     0         0      
       SemaphoreP_tirtos.oem4f      146     0         0      
       HwiP_tirtos.oem4f            138     0         0      
    +--+----------------------------+-------+---------+---------+
       Total:                       432     0         0      
                                                             
    C:\ti\ccsv8\tools\compiler\ti-cgt-arm_18.1.1.LTS\lib\rtsv7M4_T_le_v4SPD16_eabi.lib
       defs.c.obj                   0       0         416    
       trgmsg.c.obj                 108     0         288    
       write.c.obj                  40      0         200    
       setvbuf.c.obj                220     0         0      
       fflush.c.obj                 200     0         0      
       memcpy_t2.asm.obj            156     0         0      
       fputc.c.obj                  152     0         0      
       memset_t2.asm.obj            122     0         0      
       fclose.c.obj                 116     0         0      
       getdevice.c.obj              116     0         0      
       copy_decompress_lzss.c.obj   104     0         0      
       hostlseek.c.obj              104     0         0      
       hostopen.c.obj               96      0         8      
       hostrename.c.obj             104     0         0      
       fseek.c.obj                  100     0         0      
       _io_perm.c.obj               98      0         0      
       close.c.obj                  92      0         0      
       exit.c.obj                   76      0         12     
       hostread.c.obj               88      0         0      
       hostwrite.c.obj              88      0         0      
       cpy_tbl.c.obj                76      0         0      
       hostclose.c.obj              68      0         0      
       hostunlink.c.obj             68      0         0      
       u_divt2.asm.obj              64      0         0      
       strncpy.c.obj                54      0         0      
       fopen.c.obj                  52      0         0      
       unlink.c.obj                 44      0         0      
       lseek.c.obj                  40      0         0      
       _lock.c.obj                  26      0         8      
       args_main.c.obj              24      0         0      
       strcmp.c.obj                 24      0         0      
       strchr.c.obj                 22      0         0      
       strcpy.c.obj                 20      0         0      
       strlen.c.obj                 20      0         0      
       copy_decompress_none.c.obj   14      0         0      
       copy_zero_init.c.obj         12      0         0      
       stkdepth_vars.c.obj          0       0         4      
       div0.asm.obj                 2       0         0      
    +--+----------------------------+-------+---------+---------+
       Total:                       2810    0         936    
                                                             
    C:\ti\tirtos_msp43x_2_20_00_06\products\bios_6_46_00_23\packages\ti\targets\arm\rtsarm\lib\auto_init.aem4f
       auto_init.oem4f              160     0         0      
    +--+----------------------------+-------+---------+---------+
       Total:                       160     0         0      
                                                             
    C:\ti\tirtos_msp43x_2_20_00_06\products\bios_6_46_00_23\packages\ti\targets\arm\rtsarm\lib\boot.aem4f
       boot.oem4f                   88      0         0      
    +--+----------------------------+-------+---------+---------+
       Total:                       88      0         0      
                                                             
    C:\ti\tirtos_msp43x_2_20_00_06\products\bios_6_46_00_23\packages\ti\targets\arm\rtsarm\lib\ti.targets.arm.rtsarm.aem4f
       System.oem4f                 1255    0         0      
       Text.oem4f                   672     0         0      
       Error.oem4f                  524     0         0      
       Core-mem.oem4f               358     0         0      
       Startup.oem4f                340     0         0      
       Core-smem.oem4f              204     0         0      
       Memory.oem4f                 176     0         0      
       Assert.oem4f                 84      0         0      
       Core-params.oem4f            70      0         0      
       Core-label.oem4f             52      0         0      
       SysStd.oem4f                 52      0         0      
       Registry.oem4f               32      0         0      
       Gate.oem4f                   28      0         0      
    +--+----------------------------+-------+---------+---------+
       Total:                       3847    0         0      
                                                             
    C:\ti\tirtos_msp43x_2_20_00_06\products\uia_2_00_06_52\packages\ti\uia\loggers\lib\release\ti.uia.loggers.aem4f
       LoggerStopMode.oem4f         552     0         0      
    +--+----------------------------+-------+---------+---------+
       Total:                       552     0         0      
                                                             
    C:\ti\tirtos_msp43x_2_20_00_06\products\uia_2_00_06_52\packages\ti\uia\runtime\lib\release\ti.uia.runtime.aem4f
       QueueDescriptor.oem4f        116     0         8      
    +--+----------------------------+-------+---------+---------+
       Total:                       116     0         8      
                                                             
    D:\TIDA\CCS Codes\spiloopback_MSP_EXP432P401R_TI\src\sysbios\sysbios.aem4f
       BIOS.obj                     13262   0         0      
       m3_Hwi_asm.obj               306     0         0      
       m3_TaskSupport_asm.obj       180     0         0      
       m3_Hwi_asm_switch.obj        118     0         0      
    +--+----------------------------+-------+---------+---------+
       Total:                       13866   0         0      
                                                             
       Stack:                       0       0         768    
       Linker Generated:            0       884       0      
    +--+----------------------------+-------+---------+---------+
       Grand Total:                 36829   11984     12286  


LINKER GENERATED COPY TABLES

__TI_cinit_table @ 0000bf28 records: 3, size/record: 8, table size: 24
	.data: load addr=0000bbc8, load size=00000340 bytes, run addr=200024b0, run size=0000094a bytes, compression=lzss
	.bss: load addr=0000bf18, load size=00000008 bytes, run addr=20000200, run size=000022b0 bytes, compression=zero_init
	.vecs: load addr=0000bf20, load size=00000008 bytes, run addr=20000000, run size=00000140 bytes, compression=zero_init


LINKER GENERATED HANDLER TABLE

__TI_handler_table @ 0000bf08 records: 3, size/record: 4, table size: 12
	index: 0, handler: __TI_decompress_lzss
	index: 1, handler: __TI_decompress_none
	index: 2, handler: __TI_zero_init


GLOBAL SYMBOLS: SORTED ALPHABETICALLY BY Name 

address   name                                                         
-------   ----                                                         
00008df3  AFE4403_disable_read                                         
00008dff  AFE4403_enable_read                                          
00007ed5  AFE4403_reg_read                                             
00008ab1  AFE4403_reg_write                                            
000073f9  AFE4403_write_register_configs                               
00008c15  AFE_ADC_RDY_goes_low                                         
0000b104  AFE_REG                                                      
0000b8e0  AFE_main                                                     
00006471  AFE_main_task                                                
00003d15  C$$EXIT                                                      
000074cf  C$$IO$$                                                      
00008e0b  CPU_cpsid                                                    
00008e17  CPU_cpsie                                                    
000007bd  CPU_wfi                                                      
00003379  CS_initClockSignal                                           
0000808d  CS_setDCOCenteredFrequency                                   
00008fef  ClockP_Params_init                                           
000060f9  ClockP_create                                                
00008a01  ClockP_delete                                                
00008bb5  ClockP_start                                                 
00008bb5  ClockP_startFromISR                                          
00008fa9  ClockP_stop                                                  
00008fa9  ClockP_stopFromISR                                           
000036e9  DMA_assignChannel                                            
00006b15  DMA_assignInterrupt                                          
00008c25  DMA_clearErrorStatus                                         
0000881d  DMA_clearInterruptFlag                                       
00008835  DMA_enableChannel                                            
00007211  DMA_enableInterrupt                                          
00008c35  DMA_enableModule                                             
00008e25  DMA_getErrorStatus                                           
0000884d  DMA_isChannelEnabled                                         
000080b1  DMA_setChannelControl                                        
000052b5  DMA_setChannelTransfer                                       
00008e31  DMA_setControlBase                                           
00008e3d  EUSCI_A_SPI_disable                                          
00008e49  EUSCI_A_SPI_enable                                           
00000aad  EUSCI_A_SPI_getReceiveBufferAddressForDMA                    
00001c65  EUSCI_A_SPI_getTransmitBufferAddressForDMA                   
00008e55  EUSCI_B_SPI_disable                                          
00008e61  EUSCI_B_SPI_enable                                           
00001dcd  EUSCI_B_SPI_getReceiveBufferAddressForDMA                    
000022d5  EUSCI_B_SPI_getTransmitBufferAddressForDMA                   
0000704d  FlashCtl_disableReadBuffering                                
000075ed  FlashCtl_enableReadBuffering                                 
00007efd  FlashCtl_setWaitState                                        
0000b8a0  GPIOMSP432_config                                            
00008865  GPIO_clearInterruptFlag                                      
00007f25  GPIO_enableInt                                               
00008ac5  GPIO_enableInterrupt                                         
0000790d  GPIO_getEnabledInterruptStatus                               
00008c45  GPIO_getInterruptStatus                                      
000064c5  GPIO_hwiIntFxn                                               
00005f29  GPIO_init                                                    
00008321  GPIO_interruptEdgeSelect                                     
00007c71  GPIO_setAsInputPin                                           
0000793d  GPIO_setAsInputPinWithPullDownResistor                       
0000796d  GPIO_setAsInputPinWithPullUpResistor                         
000080d5  GPIO_setAsOutputPin                                          
00006b5d  GPIO_setAsPeripheralModuleFunctionInputPin                   
00006861  GPIO_setAsPeripheralModuleFunctionOutputPin                  
00006519  GPIO_setCallback                                             
00001f19  GPIO_setConfig                                               
00008ad9  GPIO_setDriveStrengthHigh                                    
0000887d  GPIO_setDriveStrengthLow                                     
00008aed  GPIO_setOutputHighOnPin                                      
00008895  GPIO_setOutputLowOnPin                                       
00006de5  HOSTclose                                                    
00005a15  HOSTlseek                                                    
00005da5  HOSTopen                                                     
000061ad  HOSTread                                                     
00005a7d  HOSTrename                                                   
00006e29  HOSTunlink                                                   
00006205  HOSTwrite                                                    
00008d99  HwiP_Params_init                                             
00005ce1  HwiP_create                                                  
00008a17  HwiP_delete                                                  
00002415  HwiP_disable                                                 
00009049  HwiP_restore                                                 
000027a5  List_head                                                    
00003b95  List_next                                                    
00008019  List_put                                                     
00008695  List_remove                                                  
0000b8d8  MSP432_UART_main                                             
00007f4d  MSP432_UART_main_task                                        
00008ff7  MSP_EXP432P401R_initGPIO                                     
00008fff  MSP_EXP432P401R_initGeneral                                  
0000799d  MSP_EXP432P401R_initSPI                                      
000088ad  MSP_GPIO_Configs                                             
000047f5  MSP_UART_initialise                                          
000080f9  MSP_UART_write                                               
0000857d  PCM_enableRudeMode                                           
00007c9d  PCM_getCoreVoltageLevel                                      
00007e2d  PCM_getPowerMode                                             
00008e6d  PCM_getPowerState                                            
00007f75  PCM_gotoLPM0                                                 
000053b9  PCM_gotoLPM3                                                 
00008c55  PCM_gotoLPM4                                                 
00009007  PCM_setPowerMode                                             
0000900f  PCM_setPowerState                                            
0000671d  PCM_shutdownDevice                                           
0000b8c8  PowerMSP432_config                                           
00008341  PowerMSP432_getFreqs                                         
00003c55  PowerMSP432_getNumPerfLevels                                 
00004aff  PowerMSP432_initPolicy                                       
20002c04  PowerMSP432_module                                           
20002684  PowerMSP432_perfLevels                                       
0000724d  PowerMSP432_sleepPolicy                                      
00007cc9  PowerMSP432_updateFreqs                                      
00008e79  Power_getConstraintMask                                      
00008e85  Power_getPerformanceLevel                                    
00008b01  Power_idleFunc                                               
00006e6d  Power_init                                                   
00008599  Power_registerNotify                                         
00007cf5  Power_releaseConstraint                                      
00007d21  Power_setConstraint                                          
00000d1d  Power_sleep                                                  
00008361  Power_unregisterNotify                                       
0000811d  RTC_C_holdClock                                              
00008141  RTC_C_startClock                                             
00008bc7  RingBuf_construct                                            
0000708d  RingBuf_get                                                  
00008381  RingBuf_peek                                                 
00006d11  RingBuf_put                                                  
0000b8dc  SEM_AFE_RDY_GOES_LOW                                         
0000b8e4  SEM_UART_DATA_TO_BE_SENT                                     
UNDEFED   SHT$$INIT_ARRAY$$Base                                        
UNDEFED   SHT$$INIT_ARRAY$$Limit                                       
00006153  SPIMSP432DMA_close                                           
00005013  SPIMSP432DMA_control                                         
0000b554  SPIMSP432DMA_fxnTable                                        
00007385  SPIMSP432DMA_hwiFxn                                          
00008fb3  SPIMSP432DMA_init                                            
00001975  SPIMSP432DMA_open                                            
000052b3  SPIMSP432DMA_serviceISR                                      
0000625d  SPIMSP432DMA_transfer                                        
000088c5  SPIMSP432DMA_transferCancel                                  
00008b15  SPI_Params_init                                              
0000b5f4  SPI_config                                                   
0000b738  SPI_defaultParams                                            
000086af  SPI_disableModule                                            
000086c9  SPI_enableModule                                             
000086e3  SPI_getReceiveBufferAddressForDMA                            
000086fd  SPI_getTransmitBufferAddressForDMA                           
00007431  SPI_init                                                     
00004f8b  SPI_initMaster                                               
0000786d  SPI_initSlave                                                
00003dd5  SPI_initialise                                               
000079cd  SPI_open                                                     
00002ae9  SPI_read                                                     
00008fbd  SPI_transfer                                                 
000037b5  SPI_write                                                    
00009017  SemaphoreP_Params_init                                       
000062b5  SemaphoreP_create                                            
00008a2d  SemaphoreP_delete                                            
00008bd9  SemaphoreP_pend                                              
00008fc7  SemaphoreP_post                                              
00008fc7  SemaphoreP_postFromClock                                     
00008fc7  SemaphoreP_postFromISR                                       
00004f01  UARTMSP432_close                                             
00004569  UARTMSP432_control                                           
0000b52c  UARTMSP432_fxnTable                                          
00007009  UARTMSP432_hwiIntFxn                                         
00008e91  UARTMSP432_init                                              
00000f81  UARTMSP432_open                                              
000070cd  UARTMSP432_read                                              
00007549  UARTMSP432_readCancel                                        
000040ad  UARTMSP432_readPolling                                       
000054b1  UARTMSP432_write                                             
000066c9  UARTMSP432_writeCancel                                       
00005c19  UARTMSP432_writePolling                                      
000088dd  UART_Params_init                                             
00008da7  UART_clearInterruptFlag                                      
0000b618  UART_config                                                  
0000b63c  UART_defaultParams                                           
00008165  UART_disableInterrupt                                        
00008e9d  UART_disableModule                                           
00008a43  UART_enableInterrupt                                         
00008ea9  UART_enableModule                                            
000078d3  UART_getInterruptStatus                                      
00007469  UART_init                                                    
00004b01  UART_initModule                                              
000079fd  UART_open                                                    
0000162d  UART_packet_format                                           
00008beb  UART_queryStatusFlags                                        
00008189  UART_receiveData                                             
000081ad  UART_transmitData                                            
00008fd1  UART_write                                                   
000083a1  UDMAMSP432_close                                             
0000b918  UDMAMSP432_config                                            
0000710d  UDMAMSP432_init                                              
000068ad  UDMAMSP432_open                                              
4000480c  WDTCTL_SYM                                                   
000088f5  WDT_A_holdTimer                                              
00008b29  WDT_A_startTimer                                             
00000000  __ASM__                                                      
20001f40  __CIOBUF_                                                    
0000006d  __ISA__                                                      
00000080  __PLAT__                                                     
20010000  __STACK_END                                                  
00000300  __STACK_SIZE                                                 
000000a3  __TARG__                                                     
0000bf28  __TI_CINIT_Base                                              
0000bf40  __TI_CINIT_Limit                                             
0000bf08  __TI_Handler_Table_Base                                      
0000bf14  __TI_Handler_Table_Limit                                     
000046b5  __TI_auto_init                                               
00007621  __TI_cleanup                                                 
20002d00  __TI_cleanup_ptr                                             
00005621  __TI_closefile                                               
00005ae5  __TI_decompress_lzss                                         
00008db5  __TI_decompress_none                                         
000068f9  __TI_doflush                                                 
20002d04  __TI_dtors_ptr                                               
20002d08  __TI_enable_exit_profile_output                              
20002ce0  __TI_ft_end                                                  
ffffffff  __TI_pprof_out_hndl                                          
ffffffff  __TI_prof_data_size                                          
ffffffff  __TI_prof_data_start                                         
00007655  __TI_readmsg                                                 
0000bbc8  __TI_static_base__                                           
20002160  __TI_tmpnams                                                 
000074a1  __TI_writemsg                                                
00005d43  __TI_wrt_ok                                                  
00008ecd  __TI_zero_init                                               
000000c9  __TRDR__                                                     
000058cf  __aeabi_idiv0                                                
000058cf  __aeabi_ldiv0                                                
000055a5  __aeabi_memclr                                               
000055a5  __aeabi_memclr4                                              
000055a5  __aeabi_memclr8                                              
0000492d  __aeabi_memcpy                                               
0000492d  __aeabi_memcpy4                                              
0000492d  __aeabi_memcpy8                                              
000055a7  __aeabi_memset                                               
000055a7  __aeabi_memset4                                              
000055a7  __aeabi_memset8                                              
20002cec  __aeabi_stderr                                               
20002ce4  __aeabi_stdin                                                
20002ce8  __aeabi_stdout                                               
0000718d  __aeabi_uidiv                                                
0000718d  __aeabi_uidivmod                                             
ffffffff  __binit__                                                    
ffffffff  __c_args__                                                   
2000fd00  __stack                                                      
0000890d  _args_main                                                   
0000630d  _c_int00                                                     
20002954  _device                                                      
200024b0  _ftable                                                      
20002d48  _lock                                                        
0000561f  _nop                                                         
00008eb5  _register_lock                                               
00008ec1  _register_unlock                                             
200029cc  _stream                                                      
20002d4c  _unlock                                                      
00003d15  abort                                                        
ffffffff  binit                                                        
00005f85  close                                                        
00006945  copy_in                                                      
00006ba5  exit                                                         
00007c41  ff_memalloc                                                  
00008717  ff_memfree                                                   
00005435  fflush                                                       
00007a2d  finddevice                                                   
00004de9  fputc                                                        
00008717  free                                                         
00005c7d  fseek                                                        
00006eb1  getdevice                                                    
20002d58  gpioCallbackFunctions                                        
20002ccc  gpioPinConfigs                                               
00007f9d  lseek                                                        
00008541  main                                                         
20002dd0  main_func_sp                                                 
00007c41  malloc                                                       
2000237c  masterRxBuffer                                               
200023fc  masterSpi                                                    
20002360  masterTransaction                                            
20002438  masterTxBuffer                                               
00008717  mem_Free                                                     
0000492d  memcpy                                                       
000055ad  memset                                                       
00008d29  osi_TaskDisable                                              
00008cb9  osi_start                                                    
20002374  parmbuf                                                      
00004de9  putc                                                         
00008ed9  putchar                                                      
00007dd5  remove                                                       
00003535  setvbuf                                                      
0000b4cc  spiMSP432DMAHWAttrs                                          
20002280  spiMSP432DMAObjects                                          
00008a59  strchr                                                       
00008925  strcmp                                                       
00008b3d  strcpy                                                       
00008b51  strlen                                                       
000075b5  strncpy                                                      
20002c54  ti_sysbios_BIOS_Module__state__V                             
00008765  ti_sysbios_BIOS_RtsGateProxy_Handle__label__S                
000082b5  ti_sysbios_BIOS_RtsGateProxy_Object__delete__S               
00003f3d  ti_sysbios_BIOS_RtsGateProxy_enter__E                        
00003ff5  ti_sysbios_BIOS_RtsGateProxy_leave__E                        
00009079  ti_sysbios_BIOS_RtsGateProxy_query__E                        
00007a8d  ti_sysbios_BIOS_atExitFunc__I                                
000081d1  ti_sysbios_BIOS_errorRaiseHook__I                            
00008a6f  ti_sysbios_BIOS_exitFunc__I                                  
00008c89  ti_sysbios_BIOS_getCpuFreq__E                                
00009091  ti_sysbios_BIOS_linkedWithIncorrectBootLibrary__E            
0000671b  ti_sysbios_BIOS_nullFunc__I                                  
000081f5  ti_sysbios_BIOS_registerRTSLock__I                           
00008219  ti_sysbios_BIOS_removeRTSLock__I                             
000083c1  ti_sysbios_BIOS_rtsLock__I                                   
0000893d  ti_sysbios_BIOS_rtsUnlock__I                                 
00008c99  ti_sysbios_BIOS_setCpuFreq__E                                
00008ca9  ti_sysbios_BIOS_setThreadType__E                             
00007689  ti_sysbios_BIOS_startFunc__I                                 
00008cb9  ti_sysbios_BIOS_start__E                                     
0000b948  ti_sysbios_family_arm_m3_Hwi_E_NMI__C                        
0000b94c  ti_sysbios_family_arm_m3_Hwi_E_alreadyDefined__C             
0000b950  ti_sysbios_family_arm_m3_Hwi_E_busFault__C                   
0000b954  ti_sysbios_family_arm_m3_Hwi_E_debugMon__C                   
0000b958  ti_sysbios_family_arm_m3_Hwi_E_hardFault__C                  
0000b95c  ti_sysbios_family_arm_m3_Hwi_E_memFault__C                   
0000b960  ti_sysbios_family_arm_m3_Hwi_E_noIsr__C                      
0000b964  ti_sysbios_family_arm_m3_Hwi_E_reserved__C                   
0000b968  ti_sysbios_family_arm_m3_Hwi_E_svCall__C                     
0000b96c  ti_sysbios_family_arm_m3_Hwi_E_usageFault__C                 
00008731  ti_sysbios_family_arm_m3_Hwi_Handle__label__S                
000076c1  ti_sysbios_family_arm_m3_Hwi_Instance_finalize__E            
00004b99  ti_sysbios_family_arm_m3_Hwi_Instance_init__E                
0000b970  ti_sysbios_family_arm_m3_Hwi_LD_end__C                       
0000b974  ti_sysbios_family_arm_m3_Hwi_LM_begin__C                     
20002df4  ti_sysbios_family_arm_m3_Hwi_Module_State_0_excActive__A     
20002dd4  ti_sysbios_family_arm_m3_Hwi_Module_State_0_excContext__A    
20002dd8  ti_sysbios_family_arm_m3_Hwi_Module_State_0_excStack__A      
0000b978  ti_sysbios_family_arm_m3_Hwi_Module__diagsEnabled__C         
0000b97c  ti_sysbios_family_arm_m3_Hwi_Module__diagsIncluded__C        
0000b980  ti_sysbios_family_arm_m3_Hwi_Module__diagsMask__C            
0000b102  ti_sysbios_family_arm_m3_Hwi_Module__id__C                   
0000b946  ti_sysbios_family_arm_m3_Hwi_Module__loggerDefined__C        
0000b984  ti_sysbios_family_arm_m3_Hwi_Module__loggerFxn1__C           
0000b988  ti_sysbios_family_arm_m3_Hwi_Module__loggerFxn8__C           
0000b98c  ti_sysbios_family_arm_m3_Hwi_Module__loggerObj__C            
20002d68  ti_sysbios_family_arm_m3_Hwi_Module__root__V                 
00008955  ti_sysbios_family_arm_m3_Hwi_Module__startupDone__F          
00008955  ti_sysbios_family_arm_m3_Hwi_Module__startupDone__S          
20002ae4  ti_sysbios_family_arm_m3_Hwi_Module__state__V                
00006771  ti_sysbios_family_arm_m3_Hwi_Module_startup__E               
0000b990  ti_sysbios_family_arm_m3_Hwi_NUM_INTERRUPTS__C               
0000b758  ti_sysbios_family_arm_m3_Hwi_Object__DESC__C                 
0000b4fc  ti_sysbios_family_arm_m3_Hwi_Object__PARAMS__C               
0000b994  ti_sysbios_family_arm_m3_Hwi_Object__count__C                
000085b5  ti_sysbios_family_arm_m3_Hwi_Object__destruct__S             
00008b65  ti_sysbios_family_arm_m3_Hwi_Object__get__S                  
20002b48  ti_sysbios_family_arm_m3_Hwi_Object__table__V                
00008ee5  ti_sysbios_family_arm_m3_Hwi_Params__init__S                 
0000b998  ti_sysbios_family_arm_m3_Hwi_ccr__C                          
00006365  ti_sysbios_family_arm_m3_Hwi_construct                       
0000420d  ti_sysbios_family_arm_m3_Hwi_destruct                        
00008ef1  ti_sysbios_family_arm_m3_Hwi_disableFxn__E                   
00006bf1  ti_sysbios_family_arm_m3_Hwi_disableInterrupt__E             
00002419  ti_sysbios_family_arm_m3_Hwi_dispatchC__I                    
20001e00  ti_sysbios_family_arm_m3_Hwi_dispatchTable                   
000030bd  ti_sysbios_family_arm_m3_Hwi_dispatch__I                     
00009031  ti_sysbios_family_arm_m3_Hwi_doSwiRestore__I                 
00008241  ti_sysbios_family_arm_m3_Hwi_doTaskRestore__I                
00006c39  ti_sysbios_family_arm_m3_Hwi_enableInterrupt__E              
00001af1  ti_sysbios_family_arm_m3_Hwi_excBusFault__I                  
00003ad9  ti_sysbios_family_arm_m3_Hwi_excDebugMon__I                  
00000041  ti_sysbios_family_arm_m3_Hwi_excDumpRegs__I                  
000083e1  ti_sysbios_family_arm_m3_Hwi_excHandlerAsm__I                
0000b99c  ti_sysbios_family_arm_m3_Hwi_excHandlerFunc__C               
00001431  ti_sysbios_family_arm_m3_Hwi_excHandlerMax__I                
00008401  ti_sysbios_family_arm_m3_Hwi_excHandler__I                   
00003b99  ti_sysbios_family_arm_m3_Hwi_excHardFault__I                 
0000b920  ti_sysbios_family_arm_m3_Hwi_excHookFuncs__A                 
0000b9a0  ti_sysbios_family_arm_m3_Hwi_excHookFuncs__C                 
00001dd1  ti_sysbios_family_arm_m3_Hwi_excMemFault__I                  
000076f9  ti_sysbios_family_arm_m3_Hwi_excNmi__I                       
000074d9  ti_sysbios_family_arm_m3_Hwi_excNoIsr__I                     
00006c81  ti_sysbios_family_arm_m3_Hwi_excReserved__I                  
00007289  ti_sysbios_family_arm_m3_Hwi_excSvCall__I                    
00001c69  ti_sysbios_family_arm_m3_Hwi_excUsageFault__I                
00006ef9  ti_sysbios_family_arm_m3_Hwi_getStackInfo__E                 
00004c31  ti_sysbios_family_arm_m3_Hwi_initNVIC__E                     
000063bd  ti_sysbios_family_arm_m3_Hwi_initStacks__E                   
0000b9a4  ti_sysbios_family_arm_m3_Hwi_nullIsrFunc__C                  
e000e000  ti_sysbios_family_arm_m3_Hwi_nvic                            
0000803f  ti_sysbios_family_arm_m3_Hwi_pendSV__I                       
00005129  ti_sysbios_family_arm_m3_Hwi_postInit__I                     
0000b9a8  ti_sysbios_family_arm_m3_Hwi_priGroup__C                     
20000000  ti_sysbios_family_arm_m3_Hwi_ramVectors                      
00000000  ti_sysbios_family_arm_m3_Hwi_resetVectors                    
00009049  ti_sysbios_family_arm_m3_Hwi_restoreFxn__E                   
00008063  ti_sysbios_family_arm_m3_Hwi_return                          
00009039  ti_sysbios_family_arm_m3_Hwi_startup__E                      
00008b79  ti_sysbios_family_arm_m3_Hwi_switchFromBootStack__E          
0000436d  ti_sysbios_family_arm_m3_TaskSupport_Module__startupDone__S  
00004e75  ti_sysbios_family_arm_m3_TaskSupport_buildTaskStack          
00008f01  ti_sysbios_family_arm_m3_TaskSupport_checkStack__E           
00008cc9  ti_sysbios_family_arm_m3_TaskSupport_glue                    
00007ac1  ti_sysbios_family_arm_m3_TaskSupport_start__E                
0000896d  ti_sysbios_family_arm_m3_TaskSupport_swap__E                 
0000b9ac  ti_sysbios_family_arm_m3_Timer_E_cannotSupport__C            
0000bb90  ti_sysbios_family_arm_m3_Timer_Module__id__C                 
20002d0c  ti_sysbios_family_arm_m3_Timer_Module__state__V              
000071d1  ti_sysbios_family_arm_m3_Timer_Module_startup__E             
20002b78  ti_sysbios_family_arm_m3_Timer_Object__table__V              
00006cc9  ti_sysbios_family_arm_m3_Timer_initDevice__I                 
00007731  ti_sysbios_family_arm_m3_Timer_periodicStub__I               
00006419  ti_sysbios_family_arm_m3_Timer_setPeriod__E                  
00006571  ti_sysbios_family_arm_m3_Timer_start__E                      
0000b9b0  ti_sysbios_family_arm_m3_Timer_startupNeeded__C              
00008269  ti_sysbios_family_arm_m3_Timer_startup__E                    
20002ddc  ti_sysbios_family_arm_m3_TimestampProvider_Module__state__V  
00008421  ti_sysbios_family_arm_m3_TimestampProvider_Module_startup__E 
0000bb92  ti_sysbios_family_arm_m3_TimestampProvider_configTimer__C    
00005e09  ti_sysbios_family_arm_m3_TimestampProvider_get32__E          
000057f1  ti_sysbios_family_arm_m3_TimestampProvider_get64__E          
00008c89  ti_sysbios_family_arm_m3_TimestampProvider_getFreq__E        
00009099  ti_sysbios_family_arm_m3_TimestampProvider_rolloverFunc__E   
00008f11  ti_sysbios_family_arm_m3_TimestampProvider_startTimer__E     
20002d18  ti_sysbios_family_arm_msp432_ClockFreqs_Module__state__V     
00008291  ti_sysbios_family_arm_msp432_ClockFreqs_setFrequency__E      
20002c78  ti_sysbios_family_arm_msp432_Timer_Module_State_0_device__A  
20002cf0  ti_sysbios_family_arm_msp432_Timer_Module_State_0_handles__A 
00008985  ti_sysbios_family_arm_msp432_Timer_Module__startupDone__F    
00008985  ti_sysbios_family_arm_msp432_Timer_Module__startupDone__S    
20002d24  ti_sysbios_family_arm_msp432_Timer_Module__state__V          
00005019  ti_sysbios_family_arm_msp432_Timer_Module_startup__E         
20002a1c  ti_sysbios_family_arm_msp432_Timer_Object__table__V          
00008f21  ti_sysbios_family_arm_msp432_Timer_getMaxTicks__E            
000065c9  ti_sysbios_family_arm_msp432_Timer_initDevice__I             
0000b9b4  ti_sysbios_family_arm_msp432_Timer_numTimerDevices__C        
00004371  ti_sysbios_family_arm_msp432_Timer_periodicStub__E           
0000b9b8  ti_sysbios_family_arm_msp432_Timer_startupNeeded__C          
00005339  ti_sysbios_family_arm_msp432_Timer_startup__E                
00006621  ti_sysbios_family_arm_msp432_init_Boot_configureClocksHigh   
00008cd9  ti_sysbios_family_arm_msp432_init_Boot_disableWatchdog       
00008de7  ti_sysbios_family_arm_msp432_init_Boot_init__I               
0000855f  ti_sysbios_family_xxx_Hwi_switchAndRunFunc                   
0000874b  ti_sysbios_gates_GateHwi_Handle__label__S                    
000090a1  ti_sysbios_gates_GateHwi_Instance_init__E                    
0000b684  ti_sysbios_gates_GateHwi_Module__FXNS__C                     
20002d70  ti_sysbios_gates_GateHwi_Module__root__V                     
0000b778  ti_sysbios_gates_GateHwi_Object__DESC__C                     
0000b858  ti_sysbios_gates_GateHwi_Object__PARAMS__C                   
00007af1  ti_sysbios_gates_GateHwi_Object__create__S                   
00008441  ti_sysbios_gates_GateHwi_Object__delete__S                   
20002de0  ti_sysbios_gates_GateHwi_Object__table__V                    
00008f31  ti_sysbios_gates_GateHwi_enter__E                            
00009051  ti_sysbios_gates_GateHwi_leave__E                            
00009071  ti_sysbios_gates_GateHwi_query__E                            
0000b9bc  ti_sysbios_gates_GateMutex_A_badContext__C                   
00008765  ti_sysbios_gates_GateMutex_Handle__label__S                  
0000b9c0  ti_sysbios_gates_GateMutex_Instance_State_sem__O             
00008ce9  ti_sysbios_gates_GateMutex_Instance_finalize__E              
000085d1  ti_sysbios_gates_GateMutex_Instance_init__E                  
0000b6a8  ti_sysbios_gates_GateMutex_Module__FXNS__C                   
0000b9c4  ti_sysbios_gates_GateMutex_Module__diagsEnabled__C           
0000b9c8  ti_sysbios_gates_GateMutex_Module__diagsIncluded__C          
0000b9cc  ti_sysbios_gates_GateMutex_Module__diagsMask__C              
0000bb94  ti_sysbios_gates_GateMutex_Module__id__C                     
20002d78  ti_sysbios_gates_GateMutex_Module__root__V                   
0000b798  ti_sysbios_gates_GateMutex_Object__DESC__C                   
0000b870  ti_sysbios_gates_GateMutex_Object__PARAMS__C                 
00007b21  ti_sysbios_gates_GateMutex_Object__create__S                 
000082b5  ti_sysbios_gates_GateMutex_Object__delete__S                 
20002aac  ti_sysbios_gates_GateMutex_Object__table__V                  
00003f41  ti_sysbios_gates_GateMutex_enter__E                          
000089a1  ti_sysbios_gates_GateMutex_leave__E                          
00009079  ti_sysbios_gates_GateMutex_query__E                          
0000b9d0  ti_sysbios_hal_Hwi_E_stackOverflow__C                        
00008731  ti_sysbios_hal_Hwi_HwiProxy_Handle__label__S                 
00008955  ti_sysbios_hal_Hwi_HwiProxy_Module__startupDone__S           
00008ee5  ti_sysbios_hal_Hwi_HwiProxy_Params__init__S                  
00006bf1  ti_sysbios_hal_Hwi_HwiProxy_disableInterrupt__E              
00008ef1  ti_sysbios_hal_Hwi_HwiProxy_disable__E                       
00006c39  ti_sysbios_hal_Hwi_HwiProxy_enableInterrupt__E               
00006ef9  ti_sysbios_hal_Hwi_HwiProxy_getStackInfo__E                  
00009049  ti_sysbios_hal_Hwi_HwiProxy_restore__E                       
00009039  ti_sysbios_hal_Hwi_HwiProxy_startup__E                       
00008b79  ti_sysbios_hal_Hwi_HwiProxy_switchFromBootStack__E           
0000bb96  ti_sysbios_hal_Hwi_Module__id__C                             
00008bf1  ti_sysbios_hal_Hwi_Module_startup__E                         
00007769  ti_sysbios_hal_Hwi_checkStack                                
00006bf1  ti_sysbios_hal_Hwi_disableInterrupt__E                       
00006c39  ti_sysbios_hal_Hwi_enableInterrupt__E                        
00006ef9  ti_sysbios_hal_Hwi_getStackInfo__E                           
000078a1  ti_sysbios_hal_Hwi_initStack                                 
00009039  ti_sysbios_hal_Hwi_startup__E                                
00008b79  ti_sysbios_hal_Hwi_switchFromBootStack__E                    
0000b9d4  ti_sysbios_heaps_HeapMem_A_align__C                          
0000b9d8  ti_sysbios_heaps_HeapMem_A_heapSize__C                       
0000b9dc  ti_sysbios_heaps_HeapMem_A_invalidFree__C                    
0000b9e0  ti_sysbios_heaps_HeapMem_A_zeroBlock__C                      
0000b9e4  ti_sysbios_heaps_HeapMem_E_memory__C                         
0000877f  ti_sysbios_heaps_HeapMem_Handle__label__S                    
20000c00  ti_sysbios_heaps_HeapMem_Instance_State_0_buf__A             
00002199  ti_sysbios_heaps_HeapMem_Instance_init__E                    
00008765  ti_sysbios_heaps_HeapMem_Module_GateProxy_Handle__label__S   
000082b5  ti_sysbios_heaps_HeapMem_Module_GateProxy_Object__delete__S  
0000460d  ti_sysbios_heaps_HeapMem_Module_GateProxy_enter__E           
00004b95  ti_sysbios_heaps_HeapMem_Module_GateProxy_leave__E           
00009079  ti_sysbios_heaps_HeapMem_Module_GateProxy_query__E           
0000b57c  ti_sysbios_heaps_HeapMem_Module__FXNS__C                     
0000b9e8  ti_sysbios_heaps_HeapMem_Module__diagsEnabled__C             
0000b9ec  ti_sysbios_heaps_HeapMem_Module__diagsIncluded__C            
0000b9f0  ti_sysbios_heaps_HeapMem_Module__diagsMask__C                
0000b9f4  ti_sysbios_heaps_HeapMem_Module__gateObj__C                  
0000bb98  ti_sysbios_heaps_HeapMem_Module__id__C                       
20002d80  ti_sysbios_heaps_HeapMem_Module__root__V                     
0000b7b8  ti_sysbios_heaps_HeapMem_Object__DESC__C                     
0000b6cc  ti_sysbios_heaps_HeapMem_Object__PARAMS__C                   
0000b9f8  ti_sysbios_heaps_HeapMem_Object__count__C                    
00007b51  ti_sysbios_heaps_HeapMem_Object__create__S                   
00008461  ti_sysbios_heaps_HeapMem_Object__delete__S                   
00008b8d  ti_sysbios_heaps_HeapMem_Object__get__S                      
20002cb4  ti_sysbios_heaps_HeapMem_Object__table__V                    
000011e1  ti_sysbios_heaps_HeapMem_alloc__E                            
00000ab1  ti_sysbios_heaps_HeapMem_free__E                             
00006991  ti_sysbios_heaps_HeapMem_getStats__E                         
000072c9  ti_sysbios_heaps_HeapMem_init__I                             
00009059  ti_sysbios_heaps_HeapMem_isBlocking__E                       
0000b9fc  ti_sysbios_heaps_HeapMem_reqAlign__C                         
0000ba00  ti_sysbios_knl_Clock_A_badThreadType__C                      
00004611  ti_sysbios_knl_Clock_Instance_finalize__E                    
00002689  ti_sysbios_knl_Clock_Instance_init__E                        
0000ba04  ti_sysbios_knl_Clock_LM_begin__C                             
0000ba08  ti_sysbios_knl_Clock_LM_tick__C                              
0000ba0c  ti_sysbios_knl_Clock_LW_delayed__C                           
0000ba10  ti_sysbios_knl_Clock_Module_State_clockQ__O                  
0000ba14  ti_sysbios_knl_Clock_Module__diagsEnabled__C                 
0000ba18  ti_sysbios_knl_Clock_Module__diagsIncluded__C                
0000ba1c  ti_sysbios_knl_Clock_Module__diagsMask__C                    
0000bb9a  ti_sysbios_knl_Clock_Module__id__C                           
0000bb9c  ti_sysbios_knl_Clock_Module__loggerDefined__C                
0000ba20  ti_sysbios_knl_Clock_Module__loggerFxn1__C                   
0000ba24  ti_sysbios_knl_Clock_Module__loggerFxn2__C                   
0000ba28  ti_sysbios_knl_Clock_Module__loggerObj__C                    
20002d88  ti_sysbios_knl_Clock_Module__root__V                         
20002bd8  ti_sysbios_knl_Clock_Module__state__V                        
000082d9  ti_sysbios_knl_Clock_Module_startup__E                       
0000b7d8  ti_sysbios_knl_Clock_Object__DESC__C                         
0000b6f0  ti_sysbios_knl_Clock_Object__PARAMS__C                       
00008481  ti_sysbios_knl_Clock_Object__destruct__S                     
00008f3d  ti_sysbios_knl_Clock_Params__init__S                         
00008985  ti_sysbios_knl_Clock_TimerProxy_Module__startupDone__S       
00004c2d  ti_sysbios_knl_Clock_TimerProxy_getMaxTicks__E               
00005339  ti_sysbios_knl_Clock_TimerProxy_startup__E                   
0000779d  ti_sysbios_knl_Clock_construct                               
00004cc5  ti_sysbios_knl_Clock_destruct                                
00007d4d  ti_sysbios_knl_Clock_doTick__I                               
00005e69  ti_sysbios_knl_Clock_logTick__E                              
00009081  ti_sysbios_knl_Clock_setTimeout__E                           
00005709  ti_sysbios_knl_Clock_start__E                                
00009061  ti_sysbios_knl_Clock_stop__E                                 
000022d9  ti_sysbios_knl_Clock_workFunc__E                             
0000b8f4  ti_sysbios_knl_Idle_funcList__A                              
0000b928  ti_sysbios_knl_Idle_funcList__C                              
00008dc9  ti_sysbios_knl_Idle_loop__E                                  
000084a1  ti_sysbios_knl_Idle_run__E                                   
00009069  ti_sysbios_knl_Queue_Instance_init__E                        
20002d90  ti_sysbios_knl_Queue_Module__root__V                         
0000b7f8  ti_sysbios_knl_Queue_Object__DESC__C                         
0000b888  ti_sysbios_knl_Queue_Object__PARAMS__C                       
000085ed  ti_sysbios_knl_Queue_Object__destruct__S                     
00008f49  ti_sysbios_knl_Queue_Object__get__S                          
00007d79  ti_sysbios_knl_Queue_construct                               
00005125  ti_sysbios_knl_Queue_destruct                                
00008dd9  ti_sysbios_knl_Queue_empty__E                                
0000ba2c  ti_sysbios_knl_Semaphore_A_badContext__C                     
0000ba30  ti_sysbios_knl_Semaphore_A_noEvents__C                       
0000ba34  ti_sysbios_knl_Semaphore_A_overflow__C                       
0000ba38  ti_sysbios_knl_Semaphore_A_pendTaskDisabled__C               
0000ba3c  ti_sysbios_knl_Semaphore_Instance_State_pendQ__O             
00008cf9  ti_sysbios_knl_Semaphore_Instance_finalize__E                
000049c9  ti_sysbios_knl_Semaphore_Instance_init__E                    
0000ba40  ti_sysbios_knl_Semaphore_LM_pend__C                          
0000ba44  ti_sysbios_knl_Semaphore_LM_post__C                          
0000ba48  ti_sysbios_knl_Semaphore_Module__diagsEnabled__C             
0000ba4c  ti_sysbios_knl_Semaphore_Module__diagsIncluded__C            
0000ba50  ti_sysbios_knl_Semaphore_Module__diagsMask__C                
0000bb9e  ti_sysbios_knl_Semaphore_Module__id__C                       
0000bba0  ti_sysbios_knl_Semaphore_Module__loggerDefined__C            
0000ba54  ti_sysbios_knl_Semaphore_Module__loggerFxn2__C               
0000ba58  ti_sysbios_knl_Semaphore_Module__loggerFxn4__C               
0000ba5c  ti_sysbios_knl_Semaphore_Module__loggerObj__C                
20002d98  ti_sysbios_knl_Semaphore_Module__root__V                     
0000b818  ti_sysbios_knl_Semaphore_Object__DESC__C                     
0000b714  ti_sysbios_knl_Semaphore_Object__PARAMS__C                   
000084c1  ti_sysbios_knl_Semaphore_Object__destruct__S                 
20002c2c  ti_sysbios_knl_Semaphore_Object__table__V                    
00008f55  ti_sysbios_knl_Semaphore_Params__init__S                     
00007b81  ti_sysbios_knl_Semaphore_construct                           
00005335  ti_sysbios_knl_Semaphore_destruct                            
000078d9  ti_sysbios_knl_Semaphore_pendTimeout__I                      
000007c1  ti_sysbios_knl_Semaphore_pend__E                             
00002059  ti_sysbios_knl_Semaphore_post__E                             
00008799  ti_sysbios_knl_Swi_Handle__label__S                          
0000ba60  ti_sysbios_knl_Swi_LD_end__C                                 
0000ba64  ti_sysbios_knl_Swi_LM_begin__C                               
0000ba68  ti_sysbios_knl_Swi_LM_post__C                                
20002854  ti_sysbios_knl_Swi_Module_State_0_readyQ__A                  
0000ba6c  ti_sysbios_knl_Swi_Module__diagsEnabled__C                   
0000ba70  ti_sysbios_knl_Swi_Module__diagsIncluded__C                  
0000ba74  ti_sysbios_knl_Swi_Module__diagsMask__C                      
0000bba2  ti_sysbios_knl_Swi_Module__id__C                             
0000bba4  ti_sysbios_knl_Swi_Module__loggerDefined__C                  
0000ba78  ti_sysbios_knl_Swi_Module__loggerFxn1__C                     
0000ba7c  ti_sysbios_knl_Swi_Module__loggerFxn4__C                     
0000ba80  ti_sysbios_knl_Swi_Module__loggerObj__C                      
20002c98  ti_sysbios_knl_Swi_Module__state__V                          
00007fc9  ti_sysbios_knl_Swi_Module_startup__E                         
0000ba84  ti_sysbios_knl_Swi_Object__count__C                          
00008ba1  ti_sysbios_knl_Swi_Object__get__S                            
20002ba8  ti_sysbios_knl_Swi_Object__table__V                          
00008d09  ti_sysbios_knl_Swi_disable__E                                
000042c1  ti_sysbios_knl_Swi_post__E                                   
000058d1  ti_sysbios_knl_Swi_restoreHwi__E                             
00007309  ti_sysbios_knl_Swi_restore__E                                
000069e1  ti_sysbios_knl_Swi_runLoop__I                                
000027a9  ti_sysbios_knl_Swi_run__I                                    
00005fe1  ti_sysbios_knl_Swi_schedule__I                               
00007349  ti_sysbios_knl_Swi_startup__E                                
0000ba88  ti_sysbios_knl_Task_E_spOutOfBounds__C                       
0000ba8c  ti_sysbios_knl_Task_E_stackOverflow__C                       
000087b3  ti_sysbios_knl_Task_Handle__label__S                         
20000200  ti_sysbios_knl_Task_Instance_State_0_stack__A                
20000600  ti_sysbios_knl_Task_Instance_State_1_stack__A                
20000a00  ti_sysbios_knl_Task_Instance_State_2_stack__A                
0000ba90  ti_sysbios_knl_Task_LD_block__C                              
0000ba94  ti_sysbios_knl_Task_LD_exit__C                               
0000ba98  ti_sysbios_knl_Task_LD_ready__C                              
0000ba9c  ti_sysbios_knl_Task_LM_switch__C                             
20002de4  ti_sysbios_knl_Task_Module_State_0_idleTask__A               
200028d4  ti_sysbios_knl_Task_Module_State_0_readyQ__A                 
0000baa0  ti_sysbios_knl_Task_Module_State_inactiveQ__O                
0000baa4  ti_sysbios_knl_Task_Module__diagsEnabled__C                  
0000baa8  ti_sysbios_knl_Task_Module__diagsIncluded__C                 
0000baac  ti_sysbios_knl_Task_Module__diagsMask__C                     
0000bba6  ti_sysbios_knl_Task_Module__id__C                            
0000bba8  ti_sysbios_knl_Task_Module__loggerDefined__C                 
0000bab0  ti_sysbios_knl_Task_Module__loggerFxn2__C                    
0000bab4  ti_sysbios_knl_Task_Module__loggerFxn4__C                    
0000bab8  ti_sysbios_knl_Task_Module__loggerObj__C                     
20002d30  ti_sysbios_knl_Task_Module__root__V                          
20002a68  ti_sysbios_knl_Task_Module__state__V                         
00006041  ti_sysbios_knl_Task_Module_startup__E                        
0000babc  ti_sysbios_knl_Task_Object__count__C                         
00008d19  ti_sysbios_knl_Task_Object__get__S                           
200025a0  ti_sysbios_knl_Task_Object__table__V                         
0000436d  ti_sysbios_knl_Task_SupportProxy_Module__startupDone__S      
00008f01  ti_sysbios_knl_Task_SupportProxy_checkStack__E               
00007ac1  ti_sysbios_knl_Task_SupportProxy_start__E                    
0000896d  ti_sysbios_knl_Task_SupportProxy_swap__E                     
0000bac0  ti_sysbios_knl_Task_allBlockedFunc__C                        
00006a31  ti_sysbios_knl_Task_allBlockedFunction__I                    
00004419  ti_sysbios_knl_Task_blockI__E                                
00003ff9  ti_sysbios_knl_Task_checkStacks__E                           
00008d29  ti_sysbios_knl_Task_disable__E                               
00008609  ti_sysbios_knl_Task_enter__I                                 
00003a19  ti_sysbios_knl_Task_exit__E                                  
0000bac4  ti_sysbios_knl_Task_numConstructedTasks__C                   
000044c1  ti_sysbios_knl_Task_postInit__I                              
00007da9  ti_sysbios_knl_Task_restore__E                               
00003881  ti_sysbios_knl_Task_schedule__I                              
00003c59  ti_sysbios_knl_Task_startCore__E                             
00009089  ti_sysbios_knl_Task_startup__E                               
00008979  ti_sysbios_knl_Task_swapReturn                               
00004cc9  ti_sysbios_knl_Task_unblockI__E                              
0000bac8  ti_sysbios_utils_Load_LS_cpuLoad__C                          
20002de8  ti_sysbios_utils_Load_Module_State_0_runningTask__A          
20002dec  ti_sysbios_utils_Load_Module_State_0_taskStartTime__A        
0000bacc  ti_sysbios_utils_Load_Module__diagsEnabled__C                
0000bad0  ti_sysbios_utils_Load_Module__diagsIncluded__C               
0000bad4  ti_sysbios_utils_Load_Module__diagsMask__C                   
0000bbaa  ti_sysbios_utils_Load_Module__id__C                          
0000bbac  ti_sysbios_utils_Load_Module__loggerDefined__C               
0000bad8  ti_sysbios_utils_Load_Module__loggerFxn1__C                  
0000badc  ti_sysbios_utils_Load_Module__loggerObj__C                   
200027bc  ti_sysbios_utils_Load_Module__state__V                       
00004211  ti_sysbios_utils_Load_idleFxn__E                             
00005ec9  ti_sysbios_utils_Load_logCPULoad__I                          
0000bae0  ti_sysbios_utils_Load_postUpdate__C                          
00007bb1  ti_sysbios_utils_Load_updateCurrentThreadTime__E             
0000bbae  ti_sysbios_utils_Load_updateInIdle__C                        
00003d19  ti_sysbios_utils_Load_updateLoads__E                         
00003d19  ti_sysbios_utils_Load_update__E                              
0000bae4  ti_sysbios_utils_Load_windowInMs__C                          
000087cd  ti_uia_loggers_LoggerStopMode_Handle__label__S               
20002380  ti_uia_loggers_LoggerStopMode_Instance_State_0_hdr__A        
20001c00  ti_uia_loggers_LoggerStopMode_Instance_State_0_packetArray__A
20002400  ti_uia_loggers_LoggerStopMode_Instance_State_1_hdr__A        
20001400  ti_uia_loggers_LoggerStopMode_Instance_State_1_packetArray__A
20002480  ti_uia_loggers_LoggerStopMode_Instance_State_2_hdr__A        
20001800  ti_uia_loggers_LoggerStopMode_Instance_State_2_packetArray__A
00008625  ti_uia_loggers_LoggerStopMode_Instance_init__E               
0000b3dc  ti_uia_loggers_LoggerStopMode_Module__FXNS__C                
0000bae8  ti_uia_loggers_LoggerStopMode_Module__diagsEnabled__C        
0000baec  ti_uia_loggers_LoggerStopMode_Module__diagsIncluded__C       
0000baf0  ti_uia_loggers_LoggerStopMode_Module__diagsMask__C           
0000bbb0  ti_uia_loggers_LoggerStopMode_Module__id__C                  
20002da0  ti_uia_loggers_LoggerStopMode_Module__root__V                
00006a7d  ti_uia_loggers_LoggerStopMode_Module_startup__E              
0000b838  ti_uia_loggers_LoggerStopMode_Object__DESC__C                
0000b5a4  ti_uia_loggers_LoggerStopMode_Object__PARAMS__C              
0000baf4  ti_uia_loggers_LoggerStopMode_Object__count__C               
00007be1  ti_uia_loggers_LoggerStopMode_Object__create__S              
000084e1  ti_uia_loggers_LoggerStopMode_Object__delete__S              
00008d39  ti_uia_loggers_LoggerStopMode_Object__get__S                 
20002720  ti_uia_loggers_LoggerStopMode_Object__table__V               
00008a85  ti_uia_loggers_LoggerStopMode_disable__E                     
00008a9b  ti_uia_loggers_LoggerStopMode_enable__E                      
00005b4d  ti_uia_loggers_LoggerStopMode_flush__E                       
00005e05  ti_uia_loggers_LoggerStopMode_getContents__E                 
0000603d  ti_uia_loggers_LoggerStopMode_getFilterLevel__E              
00006415  ti_uia_loggers_LoggerStopMode_getInstanceId__E               
0000656d  ti_uia_loggers_LoggerStopMode_getMaxLength__E                
000065c5  ti_uia_loggers_LoggerStopMode_getPriority__E                 
0000661d  ti_uia_loggers_LoggerStopMode_getTransferType__E             
00006f3d  ti_uia_loggers_LoggerStopMode_initBuffer__I                  
00004d59  ti_uia_loggers_LoggerStopMode_initQueueDescriptor__E         
00008d49  ti_uia_loggers_LoggerStopMode_isEmpty__E                     
0000bbb2  ti_uia_loggers_LoggerStopMode_isTimestampEnabled__C          
000077d1  ti_uia_loggers_LoggerStopMode_reset__E                       
00006b13  ti_uia_loggers_LoggerStopMode_setFilterLevel__E              
00006de3  ti_uia_loggers_LoggerStopMode_setPriority__E                 
00003611  ti_uia_loggers_LoggerStopMode_write0__E                      
000031a9  ti_uia_loggers_LoggerStopMode_write1__E                      
00003291  ti_uia_loggers_LoggerStopMode_write2__E                      
00002ed9  ti_uia_loggers_LoggerStopMode_write4__E                      
000029dd  ti_uia_loggers_LoggerStopMode_write8__E                      
00002551  ti_uia_loggers_LoggerStopMode_writeMemoryRange__E            
0000baf8  ti_uia_runtime_ILoggerSnapshot_Interface__BASE__C            
0000bafc  ti_uia_runtime_IUIATransfer_Interface__BASE__C               
20002d3c  ti_uia_runtime_QueueDescriptor_Module__state__V              
0000577d  ti_uia_runtime_QueueDescriptor_addToList__E                  
20002d60  ti_uia_runtime_QueueDescriptor_gPtrToFirstDescriptor         
20002d64  ti_uia_runtime_QueueDescriptor_gUpdateCount                  
2000243c  transferOK                                                   
20002df8  tx_size                                                      
20002440  uart                                                         
0000b36c  uartMSP432Baudrates                                          
0000b484  uartMSP432HWAttrs                                            
20002060  uartMSP432Objects                                            
200022f0  uartMSP432RingBuffer                                         
200023b0  uartParams                                                   
200023d4  uart_tx_buffer                                               
0000b900  udmaMSP432HWAttrs                                            
20002430  udmaMSP432Object                                             
200023e8  ui32_8_convert                                               
00007dd5  unlink                                                       
00007ff1  write                                                        
0000bb00  xdc_runtime_Assert_E_assertFailed__C                         
00006675  xdc_runtime_Assert_raise__I                                  
0000bb04  xdc_runtime_Core_A_initializedParams__C                      
0000bb08  xdc_runtime_Core_Module__diagsEnabled__C                     
0000bb0c  xdc_runtime_Core_Module__diagsIncluded__C                    
0000bb10  xdc_runtime_Core_Module__diagsMask__C                        
0000bbb4  xdc_runtime_Core_Module__id__C                               
00007805  xdc_runtime_Core_assignLabel__I                              
00006d9d  xdc_runtime_Core_assignParams__I                             
0000394d  xdc_runtime_Core_constructObject__I                          
00002be9  xdc_runtime_Core_createObject__I                             
00005bb3  xdc_runtime_Core_deleteObject__I                             
0000bb14  xdc_runtime_Error_E_memory__C                                
0000bb18  xdc_runtime_Error_Module__diagsEnabled__C                    
0000bb1c  xdc_runtime_Error_Module__diagsIncluded__C                   
0000bb20  xdc_runtime_Error_Module__diagsMask__C                       
0000bbb6  xdc_runtime_Error_Module__loggerDefined__C                   
0000bb24  xdc_runtime_Error_Module__loggerFxn8__C                      
0000bb28  xdc_runtime_Error_Module__loggerObj__C                       
20002df6  xdc_runtime_Error_Module__state__V                           
000089b9  xdc_runtime_Error_check__E                                   
0000676d  xdc_runtime_Error_getSite__E                                 
00008f61  xdc_runtime_Error_init__E                                    
0000bbb8  xdc_runtime_Error_maxDepth__C                                
000028c5  xdc_runtime_Error_policyDefault__E                           
0000bb2c  xdc_runtime_Error_policyFxn__C                               
0000b945  xdc_runtime_Error_policy__C                                  
0000593d  xdc_runtime_Error_print__E                                   
0000bb30  xdc_runtime_Error_raiseHook__C                               
00008641  xdc_runtime_Error_raiseX__E                                  
00006f81  xdc_runtime_Error_setX__E                                    
00008f6d  xdc_runtime_Gate_enterSystem__E                              
00008d59  xdc_runtime_Gate_leaveSystem__E                              
0000bb34  xdc_runtime_IFilterLogger_Interface__BASE__C                 
0000bb38  xdc_runtime_IGateProvider_Interface__BASE__C                 
0000bb3c  xdc_runtime_IHeap_Interface__BASE__C                         
0000bb40  xdc_runtime_ILogger_Interface__BASE__C                       
0000bb44  xdc_runtime_IModule_Interface__BASE__C                       
0000bb48  xdc_runtime_Log_L_error__C                                   
0000874b  xdc_runtime_Main_Module_GateProxy_Handle__label__S           
00008441  xdc_runtime_Main_Module_GateProxy_Object__delete__S          
00009071  xdc_runtime_Main_Module_GateProxy_query__E                   
0000877f  xdc_runtime_Memory_HeapProxy_Handle__label__S                
00008461  xdc_runtime_Memory_HeapProxy_Object__delete__S               
00008fdb  xdc_runtime_Memory_HeapProxy_alloc__E                        
00008fe5  xdc_runtime_Memory_HeapProxy_free__E                         
0000bbba  xdc_runtime_Memory_Module__id__C                             
20002df0  xdc_runtime_Memory_Module__state__V                          
000059a9  xdc_runtime_Memory_alloc__E                                  
00008f79  xdc_runtime_Memory_calloc__E                                 
0000bb4c  xdc_runtime_Memory_defaultHeapInstance__C                    
00008d69  xdc_runtime_Memory_free__E                                   
00008f85  xdc_runtime_Memory_getMaxDefaultTypeAlign__E                 
0000865d  xdc_runtime_Memory_valloc__E                                 
20002da8  xdc_runtime_Registry_Module__state__V                        
00008501  xdc_runtime_Registry_findById__E                             
20002db0  xdc_runtime_Startup_Module__state__V                         
00000001  xdc_runtime_Startup__EXECFXN__C                              
00000001  xdc_runtime_Startup__RESETFXN__C                             
0000bb50  xdc_runtime_Startup_execImpl__C                              
000067c1  xdc_runtime_Startup_exec__E                                  
00008c03  xdc_runtime_Startup_exec__I                                  
0000b90c  xdc_runtime_Startup_firstFxns__A                             
0000b930  xdc_runtime_Startup_firstFxns__C                             
0000bb54  xdc_runtime_Startup_lastFxns__A                              
0000b938  xdc_runtime_Startup_lastFxns__C                              
0000bb58  xdc_runtime_Startup_maxPasses__C                             
00008de7  xdc_runtime_Startup_reset__I                                 
00008f91  xdc_runtime_Startup_rtsDone__E                               
0000b8b4  xdc_runtime_Startup_sfxnRts__A                               
0000bb5c  xdc_runtime_Startup_sfxnRts__C                               
0000b5cc  xdc_runtime_Startup_sfxnTab__A                               
0000bb60  xdc_runtime_Startup_sfxnTab__C                               
00002ce9  xdc_runtime_Startup_startMods__I                             
00008521  xdc_runtime_SysStd_abort__E                                  
00008f9d  xdc_runtime_SysStd_exit__E                                   
000069dd  xdc_runtime_SysStd_putch__E                                  
00006a2d  xdc_runtime_SysStd_ready__E                                  
0000874b  xdc_runtime_System_Module_GateProxy_Handle__label__S         
00008441  xdc_runtime_System_Module_GateProxy_Object__delete__S        
00006bed  xdc_runtime_System_Module_GateProxy_enter__E                 
00006ef5  xdc_runtime_System_Module_GateProxy_leave__E                 
00009071  xdc_runtime_System_Module_GateProxy_query__E                 
20002db8  xdc_runtime_System_Module_State_0_atexitHandlers__A          
0000bb64  xdc_runtime_System_Module__gateObj__C                        
20002dc0  xdc_runtime_System_Module__state__V                          
00008dc3  xdc_runtime_System_Module_startup__E                         
00008521  xdc_runtime_System_SupportProxy_abort__E                     
00008f9d  xdc_runtime_System_SupportProxy_exit__E                      
000069dd  xdc_runtime_System_SupportProxy_putch__E                     
00006a2d  xdc_runtime_System_SupportProxy_ready__E                     
0000bb68  xdc_runtime_System_abortFxn__C                               
00003d15  xdc_runtime_System_abortStd__E                               
00008679  xdc_runtime_System_abort__E                                  
000087e7  xdc_runtime_System_aprintf__E                                
000071cd  xdc_runtime_System_aprintf_va__F                             
00007511  xdc_runtime_System_atexit__E                                 
00008065  xdc_runtime_System_avprintf__E                               
00000471  xdc_runtime_System_doPrint__I                                
0000bb6c  xdc_runtime_System_exitFxn__C                                
00006ba5  xdc_runtime_System_exitStd__E                                
000089d1  xdc_runtime_System_exit__E                                   
0000bb70  xdc_runtime_System_extendFxn__C                              
00005861  xdc_runtime_System_formatNum__I                              
0000bb74  xdc_runtime_System_maxAtexitHandlers__C                      
00002de1  xdc_runtime_System_printfExtend__I                           
00008801  xdc_runtime_System_printf__E                                 
000072c5  xdc_runtime_System_printf_va__F                              
00007c11  xdc_runtime_System_processAtExit__E                          
00007eab  xdc_runtime_System_putchar__I                                
000082fd  xdc_runtime_System_vprintf__E                                
00008d79  xdc_runtime_System_vsnprintf__E                              
0000bbbc  xdc_runtime_Text_charCnt__C                                  
000090a4  xdc_runtime_Text_charTab__A                                  
0000bb78  xdc_runtime_Text_charTab__C                                  
00007e01  xdc_runtime_Text_cordText__E                                 
0000bbbe  xdc_runtime_Text_isLoaded__C                                 
0000bb7c  xdc_runtime_Text_nameEmpty__C                                
0000bb80  xdc_runtime_Text_nameStatic__C                               
0000bb84  xdc_runtime_Text_nameUnknown__C                              
0000b26c  xdc_runtime_Text_nodeTab__A                                  
0000bb88  xdc_runtime_Text_nodeTab__C                                  
00007839  xdc_runtime_Text_printVisFxn__I                              
0000609d  xdc_runtime_Text_putLab__E                                   
00004755  xdc_runtime_Text_putMod__E                                   
00004a65  xdc_runtime_Text_putSite__E                                  
0000bbc0  xdc_runtime_Text_registryModsLastId__C                       
000089e9  xdc_runtime_Text_ropeText__E                                 
0000bbc2  xdc_runtime_Text_unnamedModsLastId__C                        
00006811  xdc_runtime_Text_visitRope2__I                               
0000bb8c  xdc_runtime_Text_visitRopeFxn__C                             
00008d89  xdc_runtime_Text_visitRope__I                                
00006fc5  xdc_runtime_Text_xprintf__I                                  
00005e09  xdc_runtime_Timestamp_SupportProxy_get32__E                  
000057f1  xdc_runtime_Timestamp_SupportProxy_get64__E                  
00008c89  xdc_runtime_Timestamp_SupportProxy_getFreq__E                
00005e09  xdc_runtime_Timestamp_get32__E                               
000057f1  xdc_runtime_Timestamp_get64__E                               
00008c89  xdc_runtime_Timestamp_getFreq__E                             


GLOBAL SYMBOLS: SORTED BY Symbol Address 

address   name                                                         
-------   ----                                                         
00000000  __ASM__                                                      
00000000  ti_sysbios_family_arm_m3_Hwi_resetVectors                    
00000001  xdc_runtime_Startup__EXECFXN__C                              
00000001  xdc_runtime_Startup__RESETFXN__C                             
00000041  ti_sysbios_family_arm_m3_Hwi_excDumpRegs__I                  
0000006d  __ISA__                                                      
00000080  __PLAT__                                                     
000000a3  __TARG__                                                     
000000c9  __TRDR__                                                     
00000300  __STACK_SIZE                                                 
00000471  xdc_runtime_System_doPrint__I                                
000007bd  CPU_wfi                                                      
000007c1  ti_sysbios_knl_Semaphore_pend__E                             
00000aad  EUSCI_A_SPI_getReceiveBufferAddressForDMA                    
00000ab1  ti_sysbios_heaps_HeapMem_free__E                             
00000d1d  Power_sleep                                                  
00000f81  UARTMSP432_open                                              
000011e1  ti_sysbios_heaps_HeapMem_alloc__E                            
00001431  ti_sysbios_family_arm_m3_Hwi_excHandlerMax__I                
0000162d  UART_packet_format                                           
00001975  SPIMSP432DMA_open                                            
00001af1  ti_sysbios_family_arm_m3_Hwi_excBusFault__I                  
00001c65  EUSCI_A_SPI_getTransmitBufferAddressForDMA                   
00001c69  ti_sysbios_family_arm_m3_Hwi_excUsageFault__I                
00001dcd  EUSCI_B_SPI_getReceiveBufferAddressForDMA                    
00001dd1  ti_sysbios_family_arm_m3_Hwi_excMemFault__I                  
00001f19  GPIO_setConfig                                               
00002059  ti_sysbios_knl_Semaphore_post__E                             
00002199  ti_sysbios_heaps_HeapMem_Instance_init__E                    
000022d5  EUSCI_B_SPI_getTransmitBufferAddressForDMA                   
000022d9  ti_sysbios_knl_Clock_workFunc__E                             
00002415  HwiP_disable                                                 
00002419  ti_sysbios_family_arm_m3_Hwi_dispatchC__I                    
00002551  ti_uia_loggers_LoggerStopMode_writeMemoryRange__E            
00002689  ti_sysbios_knl_Clock_Instance_init__E                        
000027a5  List_head                                                    
000027a9  ti_sysbios_knl_Swi_run__I                                    
000028c5  xdc_runtime_Error_policyDefault__E                           
000029dd  ti_uia_loggers_LoggerStopMode_write8__E                      
00002ae9  SPI_read                                                     
00002be9  xdc_runtime_Core_createObject__I                             
00002ce9  xdc_runtime_Startup_startMods__I                             
00002de1  xdc_runtime_System_printfExtend__I                           
00002ed9  ti_uia_loggers_LoggerStopMode_write4__E                      
000030bd  ti_sysbios_family_arm_m3_Hwi_dispatch__I                     
000031a9  ti_uia_loggers_LoggerStopMode_write1__E                      
00003291  ti_uia_loggers_LoggerStopMode_write2__E                      
00003379  CS_initClockSignal                                           
00003535  setvbuf                                                      
00003611  ti_uia_loggers_LoggerStopMode_write0__E                      
000036e9  DMA_assignChannel                                            
000037b5  SPI_write                                                    
00003881  ti_sysbios_knl_Task_schedule__I                              
0000394d  xdc_runtime_Core_constructObject__I                          
00003a19  ti_sysbios_knl_Task_exit__E                                  
00003ad9  ti_sysbios_family_arm_m3_Hwi_excDebugMon__I                  
00003b95  List_next                                                    
00003b99  ti_sysbios_family_arm_m3_Hwi_excHardFault__I                 
00003c55  PowerMSP432_getNumPerfLevels                                 
00003c59  ti_sysbios_knl_Task_startCore__E                             
00003d15  C$$EXIT                                                      
00003d15  abort                                                        
00003d15  xdc_runtime_System_abortStd__E                               
00003d19  ti_sysbios_utils_Load_updateLoads__E                         
00003d19  ti_sysbios_utils_Load_update__E                              
00003dd5  SPI_initialise                                               
00003f3d  ti_sysbios_BIOS_RtsGateProxy_enter__E                        
00003f41  ti_sysbios_gates_GateMutex_enter__E                          
00003ff5  ti_sysbios_BIOS_RtsGateProxy_leave__E                        
00003ff9  ti_sysbios_knl_Task_checkStacks__E                           
000040ad  UARTMSP432_readPolling                                       
0000420d  ti_sysbios_family_arm_m3_Hwi_destruct                        
00004211  ti_sysbios_utils_Load_idleFxn__E                             
000042c1  ti_sysbios_knl_Swi_post__E                                   
0000436d  ti_sysbios_family_arm_m3_TaskSupport_Module__startupDone__S  
0000436d  ti_sysbios_knl_Task_SupportProxy_Module__startupDone__S      
00004371  ti_sysbios_family_arm_msp432_Timer_periodicStub__E           
00004419  ti_sysbios_knl_Task_blockI__E                                
000044c1  ti_sysbios_knl_Task_postInit__I                              
00004569  UARTMSP432_control                                           
0000460d  ti_sysbios_heaps_HeapMem_Module_GateProxy_enter__E           
00004611  ti_sysbios_knl_Clock_Instance_finalize__E                    
000046b5  __TI_auto_init                                               
00004755  xdc_runtime_Text_putMod__E                                   
000047f5  MSP_UART_initialise                                          
0000492d  __aeabi_memcpy                                               
0000492d  __aeabi_memcpy4                                              
0000492d  __aeabi_memcpy8                                              
0000492d  memcpy                                                       
000049c9  ti_sysbios_knl_Semaphore_Instance_init__E                    
00004a65  xdc_runtime_Text_putSite__E                                  
00004aff  PowerMSP432_initPolicy                                       
00004b01  UART_initModule                                              
00004b95  ti_sysbios_heaps_HeapMem_Module_GateProxy_leave__E           
00004b99  ti_sysbios_family_arm_m3_Hwi_Instance_init__E                
00004c2d  ti_sysbios_knl_Clock_TimerProxy_getMaxTicks__E               
00004c31  ti_sysbios_family_arm_m3_Hwi_initNVIC__E                     
00004cc5  ti_sysbios_knl_Clock_destruct                                
00004cc9  ti_sysbios_knl_Task_unblockI__E                              
00004d59  ti_uia_loggers_LoggerStopMode_initQueueDescriptor__E         
00004de9  fputc                                                        
00004de9  putc                                                         
00004e75  ti_sysbios_family_arm_m3_TaskSupport_buildTaskStack          
00004f01  UARTMSP432_close                                             
00004f8b  SPI_initMaster                                               
00005013  SPIMSP432DMA_control                                         
00005019  ti_sysbios_family_arm_msp432_Timer_Module_startup__E         
00005125  ti_sysbios_knl_Queue_destruct                                
00005129  ti_sysbios_family_arm_m3_Hwi_postInit__I                     
000052b3  SPIMSP432DMA_serviceISR                                      
000052b5  DMA_setChannelTransfer                                       
00005335  ti_sysbios_knl_Semaphore_destruct                            
00005339  ti_sysbios_family_arm_msp432_Timer_startup__E                
00005339  ti_sysbios_knl_Clock_TimerProxy_startup__E                   
000053b9  PCM_gotoLPM3                                                 
00005435  fflush                                                       
000054b1  UARTMSP432_write                                             
000055a5  __aeabi_memclr                                               
000055a5  __aeabi_memclr4                                              
000055a5  __aeabi_memclr8                                              
000055a7  __aeabi_memset                                               
000055a7  __aeabi_memset4                                              
000055a7  __aeabi_memset8                                              
000055ad  memset                                                       
0000561f  _nop                                                         
00005621  __TI_closefile                                               
00005709  ti_sysbios_knl_Clock_start__E                                
0000577d  ti_uia_runtime_QueueDescriptor_addToList__E                  
000057f1  ti_sysbios_family_arm_m3_TimestampProvider_get64__E          
000057f1  xdc_runtime_Timestamp_SupportProxy_get64__E                  
000057f1  xdc_runtime_Timestamp_get64__E                               
00005861  xdc_runtime_System_formatNum__I                              
000058cf  __aeabi_idiv0                                                
000058cf  __aeabi_ldiv0                                                
000058d1  ti_sysbios_knl_Swi_restoreHwi__E                             
0000593d  xdc_runtime_Error_print__E                                   
000059a9  xdc_runtime_Memory_alloc__E                                  
00005a15  HOSTlseek                                                    
00005a7d  HOSTrename                                                   
00005ae5  __TI_decompress_lzss                                         
00005b4d  ti_uia_loggers_LoggerStopMode_flush__E                       
00005bb3  xdc_runtime_Core_deleteObject__I                             
00005c19  UARTMSP432_writePolling                                      
00005c7d  fseek                                                        
00005ce1  HwiP_create                                                  
00005d43  __TI_wrt_ok                                                  
00005da5  HOSTopen                                                     
00005e05  ti_uia_loggers_LoggerStopMode_getContents__E                 
00005e09  ti_sysbios_family_arm_m3_TimestampProvider_get32__E          
00005e09  xdc_runtime_Timestamp_SupportProxy_get32__E                  
00005e09  xdc_runtime_Timestamp_get32__E                               
00005e69  ti_sysbios_knl_Clock_logTick__E                              
00005ec9  ti_sysbios_utils_Load_logCPULoad__I                          
00005f29  GPIO_init                                                    
00005f85  close                                                        
00005fe1  ti_sysbios_knl_Swi_schedule__I                               
0000603d  ti_uia_loggers_LoggerStopMode_getFilterLevel__E              
00006041  ti_sysbios_knl_Task_Module_startup__E                        
0000609d  xdc_runtime_Text_putLab__E                                   
000060f9  ClockP_create                                                
00006153  SPIMSP432DMA_close                                           
000061ad  HOSTread                                                     
00006205  HOSTwrite                                                    
0000625d  SPIMSP432DMA_transfer                                        
000062b5  SemaphoreP_create                                            
0000630d  _c_int00                                                     
00006365  ti_sysbios_family_arm_m3_Hwi_construct                       
000063bd  ti_sysbios_family_arm_m3_Hwi_initStacks__E                   
00006415  ti_uia_loggers_LoggerStopMode_getInstanceId__E               
00006419  ti_sysbios_family_arm_m3_Timer_setPeriod__E                  
00006471  AFE_main_task                                                
000064c5  GPIO_hwiIntFxn                                               
00006519  GPIO_setCallback                                             
0000656d  ti_uia_loggers_LoggerStopMode_getMaxLength__E                
00006571  ti_sysbios_family_arm_m3_Timer_start__E                      
000065c5  ti_uia_loggers_LoggerStopMode_getPriority__E                 
000065c9  ti_sysbios_family_arm_msp432_Timer_initDevice__I             
0000661d  ti_uia_loggers_LoggerStopMode_getTransferType__E             
00006621  ti_sysbios_family_arm_msp432_init_Boot_configureClocksHigh   
00006675  xdc_runtime_Assert_raise__I                                  
000066c9  UARTMSP432_writeCancel                                       
0000671b  ti_sysbios_BIOS_nullFunc__I                                  
0000671d  PCM_shutdownDevice                                           
0000676d  xdc_runtime_Error_getSite__E                                 
00006771  ti_sysbios_family_arm_m3_Hwi_Module_startup__E               
000067c1  xdc_runtime_Startup_exec__E                                  
00006811  xdc_runtime_Text_visitRope2__I                               
00006861  GPIO_setAsPeripheralModuleFunctionOutputPin                  
000068ad  UDMAMSP432_open                                              
000068f9  __TI_doflush                                                 
00006945  copy_in                                                      
00006991  ti_sysbios_heaps_HeapMem_getStats__E                         
000069dd  xdc_runtime_SysStd_putch__E                                  
000069dd  xdc_runtime_System_SupportProxy_putch__E                     
000069e1  ti_sysbios_knl_Swi_runLoop__I                                
00006a2d  xdc_runtime_SysStd_ready__E                                  
00006a2d  xdc_runtime_System_SupportProxy_ready__E                     
00006a31  ti_sysbios_knl_Task_allBlockedFunction__I                    
00006a7d  ti_uia_loggers_LoggerStopMode_Module_startup__E              
00006b13  ti_uia_loggers_LoggerStopMode_setFilterLevel__E              
00006b15  DMA_assignInterrupt                                          
00006b5d  GPIO_setAsPeripheralModuleFunctionInputPin                   
00006ba5  exit                                                         
00006ba5  xdc_runtime_System_exitStd__E                                
00006bed  xdc_runtime_System_Module_GateProxy_enter__E                 
00006bf1  ti_sysbios_family_arm_m3_Hwi_disableInterrupt__E             
00006bf1  ti_sysbios_hal_Hwi_HwiProxy_disableInterrupt__E              
00006bf1  ti_sysbios_hal_Hwi_disableInterrupt__E                       
00006c39  ti_sysbios_family_arm_m3_Hwi_enableInterrupt__E              
00006c39  ti_sysbios_hal_Hwi_HwiProxy_enableInterrupt__E               
00006c39  ti_sysbios_hal_Hwi_enableInterrupt__E                        
00006c81  ti_sysbios_family_arm_m3_Hwi_excReserved__I                  
00006cc9  ti_sysbios_family_arm_m3_Timer_initDevice__I                 
00006d11  RingBuf_put                                                  
00006d9d  xdc_runtime_Core_assignParams__I                             
00006de3  ti_uia_loggers_LoggerStopMode_setPriority__E                 
00006de5  HOSTclose                                                    
00006e29  HOSTunlink                                                   
00006e6d  Power_init                                                   
00006eb1  getdevice                                                    
00006ef5  xdc_runtime_System_Module_GateProxy_leave__E                 
00006ef9  ti_sysbios_family_arm_m3_Hwi_getStackInfo__E                 
00006ef9  ti_sysbios_hal_Hwi_HwiProxy_getStackInfo__E                  
00006ef9  ti_sysbios_hal_Hwi_getStackInfo__E                           
00006f3d  ti_uia_loggers_LoggerStopMode_initBuffer__I                  
00006f81  xdc_runtime_Error_setX__E                                    
00006fc5  xdc_runtime_Text_xprintf__I                                  
00007009  UARTMSP432_hwiIntFxn                                         
0000704d  FlashCtl_disableReadBuffering                                
0000708d  RingBuf_get                                                  
000070cd  UARTMSP432_read                                              
0000710d  UDMAMSP432_init                                              
0000718d  __aeabi_uidiv                                                
0000718d  __aeabi_uidivmod                                             
000071cd  xdc_runtime_System_aprintf_va__F                             
000071d1  ti_sysbios_family_arm_m3_Timer_Module_startup__E             
00007211  DMA_enableInterrupt                                          
0000724d  PowerMSP432_sleepPolicy                                      
00007289  ti_sysbios_family_arm_m3_Hwi_excSvCall__I                    
000072c5  xdc_runtime_System_printf_va__F                              
000072c9  ti_sysbios_heaps_HeapMem_init__I                             
00007309  ti_sysbios_knl_Swi_restore__E                                
00007349  ti_sysbios_knl_Swi_startup__E                                
00007385  SPIMSP432DMA_hwiFxn                                          
000073f9  AFE4403_write_register_configs                               
00007431  SPI_init                                                     
00007469  UART_init                                                    
000074a1  __TI_writemsg                                                
000074cf  C$$IO$$                                                      
000074d9  ti_sysbios_family_arm_m3_Hwi_excNoIsr__I                     
00007511  xdc_runtime_System_atexit__E                                 
00007549  UARTMSP432_readCancel                                        
000075b5  strncpy                                                      
000075ed  FlashCtl_enableReadBuffering                                 
00007621  __TI_cleanup                                                 
00007655  __TI_readmsg                                                 
00007689  ti_sysbios_BIOS_startFunc__I                                 
000076c1  ti_sysbios_family_arm_m3_Hwi_Instance_finalize__E            
000076f9  ti_sysbios_family_arm_m3_Hwi_excNmi__I                       
00007731  ti_sysbios_family_arm_m3_Timer_periodicStub__I               
00007769  ti_sysbios_hal_Hwi_checkStack                                
0000779d  ti_sysbios_knl_Clock_construct                               
000077d1  ti_uia_loggers_LoggerStopMode_reset__E                       
00007805  xdc_runtime_Core_assignLabel__I                              
00007839  xdc_runtime_Text_printVisFxn__I                              
0000786d  SPI_initSlave                                                
000078a1  ti_sysbios_hal_Hwi_initStack                                 
000078d3  UART_getInterruptStatus                                      
000078d9  ti_sysbios_knl_Semaphore_pendTimeout__I                      
0000790d  GPIO_getEnabledInterruptStatus                               
0000793d  GPIO_setAsInputPinWithPullDownResistor                       
0000796d  GPIO_setAsInputPinWithPullUpResistor                         
0000799d  MSP_EXP432P401R_initSPI                                      
000079cd  SPI_open                                                     
000079fd  UART_open                                                    
00007a2d  finddevice                                                   
00007a8d  ti_sysbios_BIOS_atExitFunc__I                                
00007ac1  ti_sysbios_family_arm_m3_TaskSupport_start__E                
00007ac1  ti_sysbios_knl_Task_SupportProxy_start__E                    
00007af1  ti_sysbios_gates_GateHwi_Object__create__S                   
00007b21  ti_sysbios_gates_GateMutex_Object__create__S                 
00007b51  ti_sysbios_heaps_HeapMem_Object__create__S                   
00007b81  ti_sysbios_knl_Semaphore_construct                           
00007bb1  ti_sysbios_utils_Load_updateCurrentThreadTime__E             
00007be1  ti_uia_loggers_LoggerStopMode_Object__create__S              
00007c11  xdc_runtime_System_processAtExit__E                          
00007c41  ff_memalloc                                                  
00007c41  malloc                                                       
00007c71  GPIO_setAsInputPin                                           
00007c9d  PCM_getCoreVoltageLevel                                      
00007cc9  PowerMSP432_updateFreqs                                      
00007cf5  Power_releaseConstraint                                      
00007d21  Power_setConstraint                                          
00007d4d  ti_sysbios_knl_Clock_doTick__I                               
00007d79  ti_sysbios_knl_Queue_construct                               
00007da9  ti_sysbios_knl_Task_restore__E                               
00007dd5  remove                                                       
00007dd5  unlink                                                       
00007e01  xdc_runtime_Text_cordText__E                                 
00007e2d  PCM_getPowerMode                                             
00007eab  xdc_runtime_System_putchar__I                                
00007ed5  AFE4403_reg_read                                             
00007efd  FlashCtl_setWaitState                                        
00007f25  GPIO_enableInt                                               
00007f4d  MSP432_UART_main_task                                        
00007f75  PCM_gotoLPM0                                                 
00007f9d  lseek                                                        
00007fc9  ti_sysbios_knl_Swi_Module_startup__E                         
00007ff1  write                                                        
00008019  List_put                                                     
0000803f  ti_sysbios_family_arm_m3_Hwi_pendSV__I                       
00008063  ti_sysbios_family_arm_m3_Hwi_return                          
00008065  xdc_runtime_System_avprintf__E                               
0000808d  CS_setDCOCenteredFrequency                                   
000080b1  DMA_setChannelControl                                        
000080d5  GPIO_setAsOutputPin                                          
000080f9  MSP_UART_write                                               
0000811d  RTC_C_holdClock                                              
00008141  RTC_C_startClock                                             
00008165  UART_disableInterrupt                                        
00008189  UART_receiveData                                             
000081ad  UART_transmitData                                            
000081d1  ti_sysbios_BIOS_errorRaiseHook__I                            
000081f5  ti_sysbios_BIOS_registerRTSLock__I                           
00008219  ti_sysbios_BIOS_removeRTSLock__I                             
00008241  ti_sysbios_family_arm_m3_Hwi_doTaskRestore__I                
00008269  ti_sysbios_family_arm_m3_Timer_startup__E                    
00008291  ti_sysbios_family_arm_msp432_ClockFreqs_setFrequency__E      
000082b5  ti_sysbios_BIOS_RtsGateProxy_Object__delete__S               
000082b5  ti_sysbios_gates_GateMutex_Object__delete__S                 
000082b5  ti_sysbios_heaps_HeapMem_Module_GateProxy_Object__delete__S  
000082d9  ti_sysbios_knl_Clock_Module_startup__E                       
000082fd  xdc_runtime_System_vprintf__E                                
00008321  GPIO_interruptEdgeSelect                                     
00008341  PowerMSP432_getFreqs                                         
00008361  Power_unregisterNotify                                       
00008381  RingBuf_peek                                                 
000083a1  UDMAMSP432_close                                             
000083c1  ti_sysbios_BIOS_rtsLock__I                                   
000083e1  ti_sysbios_family_arm_m3_Hwi_excHandlerAsm__I                
00008401  ti_sysbios_family_arm_m3_Hwi_excHandler__I                   
00008421  ti_sysbios_family_arm_m3_TimestampProvider_Module_startup__E 
00008441  ti_sysbios_gates_GateHwi_Object__delete__S                   
00008441  xdc_runtime_Main_Module_GateProxy_Object__delete__S          
00008441  xdc_runtime_System_Module_GateProxy_Object__delete__S        
00008461  ti_sysbios_heaps_HeapMem_Object__delete__S                   
00008461  xdc_runtime_Memory_HeapProxy_Object__delete__S               
00008481  ti_sysbios_knl_Clock_Object__destruct__S                     
000084a1  ti_sysbios_knl_Idle_run__E                                   
000084c1  ti_sysbios_knl_Semaphore_Object__destruct__S                 
000084e1  ti_uia_loggers_LoggerStopMode_Object__delete__S              
00008501  xdc_runtime_Registry_findById__E                             
00008521  xdc_runtime_SysStd_abort__E                                  
00008521  xdc_runtime_System_SupportProxy_abort__E                     
00008541  main                                                         
0000855f  ti_sysbios_family_xxx_Hwi_switchAndRunFunc                   
0000857d  PCM_enableRudeMode                                           
00008599  Power_registerNotify                                         
000085b5  ti_sysbios_family_arm_m3_Hwi_Object__destruct__S             
000085d1  ti_sysbios_gates_GateMutex_Instance_init__E                  
000085ed  ti_sysbios_knl_Queue_Object__destruct__S                     
00008609  ti_sysbios_knl_Task_enter__I                                 
00008625  ti_uia_loggers_LoggerStopMode_Instance_init__E               
00008641  xdc_runtime_Error_raiseX__E                                  
0000865d  xdc_runtime_Memory_valloc__E                                 
00008679  xdc_runtime_System_abort__E                                  
00008695  List_remove                                                  
000086af  SPI_disableModule                                            
000086c9  SPI_enableModule                                             
000086e3  SPI_getReceiveBufferAddressForDMA                            
000086fd  SPI_getTransmitBufferAddressForDMA                           
00008717  ff_memfree                                                   
00008717  free                                                         
00008717  mem_Free                                                     
00008731  ti_sysbios_family_arm_m3_Hwi_Handle__label__S                
00008731  ti_sysbios_hal_Hwi_HwiProxy_Handle__label__S                 
0000874b  ti_sysbios_gates_GateHwi_Handle__label__S                    
0000874b  xdc_runtime_Main_Module_GateProxy_Handle__label__S           
0000874b  xdc_runtime_System_Module_GateProxy_Handle__label__S         
00008765  ti_sysbios_BIOS_RtsGateProxy_Handle__label__S                
00008765  ti_sysbios_gates_GateMutex_Handle__label__S                  
00008765  ti_sysbios_heaps_HeapMem_Module_GateProxy_Handle__label__S   
0000877f  ti_sysbios_heaps_HeapMem_Handle__label__S                    
0000877f  xdc_runtime_Memory_HeapProxy_Handle__label__S                
00008799  ti_sysbios_knl_Swi_Handle__label__S                          
000087b3  ti_sysbios_knl_Task_Handle__label__S                         
000087cd  ti_uia_loggers_LoggerStopMode_Handle__label__S               
000087e7  xdc_runtime_System_aprintf__E                                
00008801  xdc_runtime_System_printf__E                                 
0000881d  DMA_clearInterruptFlag                                       
00008835  DMA_enableChannel                                            
0000884d  DMA_isChannelEnabled                                         
00008865  GPIO_clearInterruptFlag                                      
0000887d  GPIO_setDriveStrengthLow                                     
00008895  GPIO_setOutputLowOnPin                                       
000088ad  MSP_GPIO_Configs                                             
000088c5  SPIMSP432DMA_transferCancel                                  
000088dd  UART_Params_init                                             
000088f5  WDT_A_holdTimer                                              
0000890d  _args_main                                                   
00008925  strcmp                                                       
0000893d  ti_sysbios_BIOS_rtsUnlock__I                                 
00008955  ti_sysbios_family_arm_m3_Hwi_Module__startupDone__F          
00008955  ti_sysbios_family_arm_m3_Hwi_Module__startupDone__S          
00008955  ti_sysbios_hal_Hwi_HwiProxy_Module__startupDone__S           
0000896d  ti_sysbios_family_arm_m3_TaskSupport_swap__E                 
0000896d  ti_sysbios_knl_Task_SupportProxy_swap__E                     
00008979  ti_sysbios_knl_Task_swapReturn                               
00008985  ti_sysbios_family_arm_msp432_Timer_Module__startupDone__F    
00008985  ti_sysbios_family_arm_msp432_Timer_Module__startupDone__S    
00008985  ti_sysbios_knl_Clock_TimerProxy_Module__startupDone__S       
000089a1  ti_sysbios_gates_GateMutex_leave__E                          
000089b9  xdc_runtime_Error_check__E                                   
000089d1  xdc_runtime_System_exit__E                                   
000089e9  xdc_runtime_Text_ropeText__E                                 
00008a01  ClockP_delete                                                
00008a17  HwiP_delete                                                  
00008a2d  SemaphoreP_delete                                            
00008a43  UART_enableInterrupt                                         
00008a59  strchr                                                       
00008a6f  ti_sysbios_BIOS_exitFunc__I                                  
00008a85  ti_uia_loggers_LoggerStopMode_disable__E                     
00008a9b  ti_uia_loggers_LoggerStopMode_enable__E                      
00008ab1  AFE4403_reg_write                                            
00008ac5  GPIO_enableInterrupt                                         
00008ad9  GPIO_setDriveStrengthHigh                                    
00008aed  GPIO_setOutputHighOnPin                                      
00008b01  Power_idleFunc                                               
00008b15  SPI_Params_init                                              
00008b29  WDT_A_startTimer                                             
00008b3d  strcpy                                                       
00008b51  strlen                                                       
00008b65  ti_sysbios_family_arm_m3_Hwi_Object__get__S                  
00008b79  ti_sysbios_family_arm_m3_Hwi_switchFromBootStack__E          
00008b79  ti_sysbios_hal_Hwi_HwiProxy_switchFromBootStack__E           
00008b79  ti_sysbios_hal_Hwi_switchFromBootStack__E                    
00008b8d  ti_sysbios_heaps_HeapMem_Object__get__S                      
00008ba1  ti_sysbios_knl_Swi_Object__get__S                            
00008bb5  ClockP_start                                                 
00008bb5  ClockP_startFromISR                                          
00008bc7  RingBuf_construct                                            
00008bd9  SemaphoreP_pend                                              
00008beb  UART_queryStatusFlags                                        
00008bf1  ti_sysbios_hal_Hwi_Module_startup__E                         
00008c03  xdc_runtime_Startup_exec__I                                  
00008c15  AFE_ADC_RDY_goes_low                                         
00008c25  DMA_clearErrorStatus                                         
00008c35  DMA_enableModule                                             
00008c45  GPIO_getInterruptStatus                                      
00008c55  PCM_gotoLPM4                                                 
00008c89  ti_sysbios_BIOS_getCpuFreq__E                                
00008c89  ti_sysbios_family_arm_m3_TimestampProvider_getFreq__E        
00008c89  xdc_runtime_Timestamp_SupportProxy_getFreq__E                
00008c89  xdc_runtime_Timestamp_getFreq__E                             
00008c99  ti_sysbios_BIOS_setCpuFreq__E                                
00008ca9  ti_sysbios_BIOS_setThreadType__E                             
00008cb9  osi_start                                                    
00008cb9  ti_sysbios_BIOS_start__E                                     
00008cc9  ti_sysbios_family_arm_m3_TaskSupport_glue                    
00008cd9  ti_sysbios_family_arm_msp432_init_Boot_disableWatchdog       
00008ce9  ti_sysbios_gates_GateMutex_Instance_finalize__E              
00008cf9  ti_sysbios_knl_Semaphore_Instance_finalize__E                
00008d09  ti_sysbios_knl_Swi_disable__E                                
00008d19  ti_sysbios_knl_Task_Object__get__S                           
00008d29  osi_TaskDisable                                              
00008d29  ti_sysbios_knl_Task_disable__E                               
00008d39  ti_uia_loggers_LoggerStopMode_Object__get__S                 
00008d49  ti_uia_loggers_LoggerStopMode_isEmpty__E                     
00008d59  xdc_runtime_Gate_leaveSystem__E                              
00008d69  xdc_runtime_Memory_free__E                                   
00008d79  xdc_runtime_System_vsnprintf__E                              
00008d89  xdc_runtime_Text_visitRope__I                                
00008d99  HwiP_Params_init                                             
00008da7  UART_clearInterruptFlag                                      
00008db5  __TI_decompress_none                                         
00008dc3  xdc_runtime_System_Module_startup__E                         
00008dc9  ti_sysbios_knl_Idle_loop__E                                  
00008dd9  ti_sysbios_knl_Queue_empty__E                                
00008de7  ti_sysbios_family_arm_msp432_init_Boot_init__I               
00008de7  xdc_runtime_Startup_reset__I                                 
00008df3  AFE4403_disable_read                                         
00008dff  AFE4403_enable_read                                          
00008e0b  CPU_cpsid                                                    
00008e17  CPU_cpsie                                                    
00008e25  DMA_getErrorStatus                                           
00008e31  DMA_setControlBase                                           
00008e3d  EUSCI_A_SPI_disable                                          
00008e49  EUSCI_A_SPI_enable                                           
00008e55  EUSCI_B_SPI_disable                                          
00008e61  EUSCI_B_SPI_enable                                           
00008e6d  PCM_getPowerState                                            
00008e79  Power_getConstraintMask                                      
00008e85  Power_getPerformanceLevel                                    
00008e91  UARTMSP432_init                                              
00008e9d  UART_disableModule                                           
00008ea9  UART_enableModule                                            
00008eb5  _register_lock                                               
00008ec1  _register_unlock                                             
00008ecd  __TI_zero_init                                               
00008ed9  putchar                                                      
00008ee5  ti_sysbios_family_arm_m3_Hwi_Params__init__S                 
00008ee5  ti_sysbios_hal_Hwi_HwiProxy_Params__init__S                  
00008ef1  ti_sysbios_family_arm_m3_Hwi_disableFxn__E                   
00008ef1  ti_sysbios_hal_Hwi_HwiProxy_disable__E                       
00008f01  ti_sysbios_family_arm_m3_TaskSupport_checkStack__E           
00008f01  ti_sysbios_knl_Task_SupportProxy_checkStack__E               
00008f11  ti_sysbios_family_arm_m3_TimestampProvider_startTimer__E     
00008f21  ti_sysbios_family_arm_msp432_Timer_getMaxTicks__E            
00008f31  ti_sysbios_gates_GateHwi_enter__E                            
00008f3d  ti_sysbios_knl_Clock_Params__init__S                         
00008f49  ti_sysbios_knl_Queue_Object__get__S                          
00008f55  ti_sysbios_knl_Semaphore_Params__init__S                     
00008f61  xdc_runtime_Error_init__E                                    
00008f6d  xdc_runtime_Gate_enterSystem__E                              
00008f79  xdc_runtime_Memory_calloc__E                                 
00008f85  xdc_runtime_Memory_getMaxDefaultTypeAlign__E                 
00008f91  xdc_runtime_Startup_rtsDone__E                               
00008f9d  xdc_runtime_SysStd_exit__E                                   
00008f9d  xdc_runtime_System_SupportProxy_exit__E                      
00008fa9  ClockP_stop                                                  
00008fa9  ClockP_stopFromISR                                           
00008fb3  SPIMSP432DMA_init                                            
00008fbd  SPI_transfer                                                 
00008fc7  SemaphoreP_post                                              
00008fc7  SemaphoreP_postFromClock                                     
00008fc7  SemaphoreP_postFromISR                                       
00008fd1  UART_write                                                   
00008fdb  xdc_runtime_Memory_HeapProxy_alloc__E                        
00008fe5  xdc_runtime_Memory_HeapProxy_free__E                         
00008fef  ClockP_Params_init                                           
00008ff7  MSP_EXP432P401R_initGPIO                                     
00008fff  MSP_EXP432P401R_initGeneral                                  
00009007  PCM_setPowerMode                                             
0000900f  PCM_setPowerState                                            
00009017  SemaphoreP_Params_init                                       
00009031  ti_sysbios_family_arm_m3_Hwi_doSwiRestore__I                 
00009039  ti_sysbios_family_arm_m3_Hwi_startup__E                      
00009039  ti_sysbios_hal_Hwi_HwiProxy_startup__E                       
00009039  ti_sysbios_hal_Hwi_startup__E                                
00009049  HwiP_restore                                                 
00009049  ti_sysbios_family_arm_m3_Hwi_restoreFxn__E                   
00009049  ti_sysbios_hal_Hwi_HwiProxy_restore__E                       
00009051  ti_sysbios_gates_GateHwi_leave__E                            
00009059  ti_sysbios_heaps_HeapMem_isBlocking__E                       
00009061  ti_sysbios_knl_Clock_stop__E                                 
00009069  ti_sysbios_knl_Queue_Instance_init__E                        
00009071  ti_sysbios_gates_GateHwi_query__E                            
00009071  xdc_runtime_Main_Module_GateProxy_query__E                   
00009071  xdc_runtime_System_Module_GateProxy_query__E                 
00009079  ti_sysbios_BIOS_RtsGateProxy_query__E                        
00009079  ti_sysbios_gates_GateMutex_query__E                          
00009079  ti_sysbios_heaps_HeapMem_Module_GateProxy_query__E           
00009081  ti_sysbios_knl_Clock_setTimeout__E                           
00009089  ti_sysbios_knl_Task_startup__E                               
00009091  ti_sysbios_BIOS_linkedWithIncorrectBootLibrary__E            
00009099  ti_sysbios_family_arm_m3_TimestampProvider_rolloverFunc__E   
000090a1  ti_sysbios_gates_GateHwi_Instance_init__E                    
000090a4  xdc_runtime_Text_charTab__A                                  
0000b102  ti_sysbios_family_arm_m3_Hwi_Module__id__C                   
0000b104  AFE_REG                                                      
0000b26c  xdc_runtime_Text_nodeTab__A                                  
0000b36c  uartMSP432Baudrates                                          
0000b3dc  ti_uia_loggers_LoggerStopMode_Module__FXNS__C                
0000b484  uartMSP432HWAttrs                                            
0000b4cc  spiMSP432DMAHWAttrs                                          
0000b4fc  ti_sysbios_family_arm_m3_Hwi_Object__PARAMS__C               
0000b52c  UARTMSP432_fxnTable                                          
0000b554  SPIMSP432DMA_fxnTable                                        
0000b57c  ti_sysbios_heaps_HeapMem_Module__FXNS__C                     
0000b5a4  ti_uia_loggers_LoggerStopMode_Object__PARAMS__C              
0000b5cc  xdc_runtime_Startup_sfxnTab__A                               
0000b5f4  SPI_config                                                   
0000b618  UART_config                                                  
0000b63c  UART_defaultParams                                           
0000b684  ti_sysbios_gates_GateHwi_Module__FXNS__C                     
0000b6a8  ti_sysbios_gates_GateMutex_Module__FXNS__C                   
0000b6cc  ti_sysbios_heaps_HeapMem_Object__PARAMS__C                   
0000b6f0  ti_sysbios_knl_Clock_Object__PARAMS__C                       
0000b714  ti_sysbios_knl_Semaphore_Object__PARAMS__C                   
0000b738  SPI_defaultParams                                            
0000b758  ti_sysbios_family_arm_m3_Hwi_Object__DESC__C                 
0000b778  ti_sysbios_gates_GateHwi_Object__DESC__C                     
0000b798  ti_sysbios_gates_GateMutex_Object__DESC__C                   
0000b7b8  ti_sysbios_heaps_HeapMem_Object__DESC__C                     
0000b7d8  ti_sysbios_knl_Clock_Object__DESC__C                         
0000b7f8  ti_sysbios_knl_Queue_Object__DESC__C                         
0000b818  ti_sysbios_knl_Semaphore_Object__DESC__C                     
0000b838  ti_uia_loggers_LoggerStopMode_Object__DESC__C                
0000b858  ti_sysbios_gates_GateHwi_Object__PARAMS__C                   
0000b870  ti_sysbios_gates_GateMutex_Object__PARAMS__C                 
0000b888  ti_sysbios_knl_Queue_Object__PARAMS__C                       
0000b8a0  GPIOMSP432_config                                            
0000b8b4  xdc_runtime_Startup_sfxnRts__A                               
0000b8c8  PowerMSP432_config                                           
0000b8d8  MSP432_UART_main                                             
0000b8dc  SEM_AFE_RDY_GOES_LOW                                         
0000b8e0  AFE_main                                                     
0000b8e4  SEM_UART_DATA_TO_BE_SENT                                     
0000b8f4  ti_sysbios_knl_Idle_funcList__A                              
0000b900  udmaMSP432HWAttrs                                            
0000b90c  xdc_runtime_Startup_firstFxns__A                             
0000b918  UDMAMSP432_config                                            
0000b920  ti_sysbios_family_arm_m3_Hwi_excHookFuncs__A                 
0000b928  ti_sysbios_knl_Idle_funcList__C                              
0000b930  xdc_runtime_Startup_firstFxns__C                             
0000b938  xdc_runtime_Startup_lastFxns__C                              
0000b945  xdc_runtime_Error_policy__C                                  
0000b946  ti_sysbios_family_arm_m3_Hwi_Module__loggerDefined__C        
0000b948  ti_sysbios_family_arm_m3_Hwi_E_NMI__C                        
0000b94c  ti_sysbios_family_arm_m3_Hwi_E_alreadyDefined__C             
0000b950  ti_sysbios_family_arm_m3_Hwi_E_busFault__C                   
0000b954  ti_sysbios_family_arm_m3_Hwi_E_debugMon__C                   
0000b958  ti_sysbios_family_arm_m3_Hwi_E_hardFault__C                  
0000b95c  ti_sysbios_family_arm_m3_Hwi_E_memFault__C                   
0000b960  ti_sysbios_family_arm_m3_Hwi_E_noIsr__C                      
0000b964  ti_sysbios_family_arm_m3_Hwi_E_reserved__C                   
0000b968  ti_sysbios_family_arm_m3_Hwi_E_svCall__C                     
0000b96c  ti_sysbios_family_arm_m3_Hwi_E_usageFault__C                 
0000b970  ti_sysbios_family_arm_m3_Hwi_LD_end__C                       
0000b974  ti_sysbios_family_arm_m3_Hwi_LM_begin__C                     
0000b978  ti_sysbios_family_arm_m3_Hwi_Module__diagsEnabled__C         
0000b97c  ti_sysbios_family_arm_m3_Hwi_Module__diagsIncluded__C        
0000b980  ti_sysbios_family_arm_m3_Hwi_Module__diagsMask__C            
0000b984  ti_sysbios_family_arm_m3_Hwi_Module__loggerFxn1__C           
0000b988  ti_sysbios_family_arm_m3_Hwi_Module__loggerFxn8__C           
0000b98c  ti_sysbios_family_arm_m3_Hwi_Module__loggerObj__C            
0000b990  ti_sysbios_family_arm_m3_Hwi_NUM_INTERRUPTS__C               
0000b994  ti_sysbios_family_arm_m3_Hwi_Object__count__C                
0000b998  ti_sysbios_family_arm_m3_Hwi_ccr__C                          
0000b99c  ti_sysbios_family_arm_m3_Hwi_excHandlerFunc__C               
0000b9a0  ti_sysbios_family_arm_m3_Hwi_excHookFuncs__C                 
0000b9a4  ti_sysbios_family_arm_m3_Hwi_nullIsrFunc__C                  
0000b9a8  ti_sysbios_family_arm_m3_Hwi_priGroup__C                     
0000b9ac  ti_sysbios_family_arm_m3_Timer_E_cannotSupport__C            
0000b9b0  ti_sysbios_family_arm_m3_Timer_startupNeeded__C              
0000b9b4  ti_sysbios_family_arm_msp432_Timer_numTimerDevices__C        
0000b9b8  ti_sysbios_family_arm_msp432_Timer_startupNeeded__C          
0000b9bc  ti_sysbios_gates_GateMutex_A_badContext__C                   
0000b9c0  ti_sysbios_gates_GateMutex_Instance_State_sem__O             
0000b9c4  ti_sysbios_gates_GateMutex_Module__diagsEnabled__C           
0000b9c8  ti_sysbios_gates_GateMutex_Module__diagsIncluded__C          
0000b9cc  ti_sysbios_gates_GateMutex_Module__diagsMask__C              
0000b9d0  ti_sysbios_hal_Hwi_E_stackOverflow__C                        
0000b9d4  ti_sysbios_heaps_HeapMem_A_align__C                          
0000b9d8  ti_sysbios_heaps_HeapMem_A_heapSize__C                       
0000b9dc  ti_sysbios_heaps_HeapMem_A_invalidFree__C                    
0000b9e0  ti_sysbios_heaps_HeapMem_A_zeroBlock__C                      
0000b9e4  ti_sysbios_heaps_HeapMem_E_memory__C                         
0000b9e8  ti_sysbios_heaps_HeapMem_Module__diagsEnabled__C             
0000b9ec  ti_sysbios_heaps_HeapMem_Module__diagsIncluded__C            
0000b9f0  ti_sysbios_heaps_HeapMem_Module__diagsMask__C                
0000b9f4  ti_sysbios_heaps_HeapMem_Module__gateObj__C                  
0000b9f8  ti_sysbios_heaps_HeapMem_Object__count__C                    
0000b9fc  ti_sysbios_heaps_HeapMem_reqAlign__C                         
0000ba00  ti_sysbios_knl_Clock_A_badThreadType__C                      
0000ba04  ti_sysbios_knl_Clock_LM_begin__C                             
0000ba08  ti_sysbios_knl_Clock_LM_tick__C                              
0000ba0c  ti_sysbios_knl_Clock_LW_delayed__C                           
0000ba10  ti_sysbios_knl_Clock_Module_State_clockQ__O                  
0000ba14  ti_sysbios_knl_Clock_Module__diagsEnabled__C                 
0000ba18  ti_sysbios_knl_Clock_Module__diagsIncluded__C                
0000ba1c  ti_sysbios_knl_Clock_Module__diagsMask__C                    
0000ba20  ti_sysbios_knl_Clock_Module__loggerFxn1__C                   
0000ba24  ti_sysbios_knl_Clock_Module__loggerFxn2__C                   
0000ba28  ti_sysbios_knl_Clock_Module__loggerObj__C                    
0000ba2c  ti_sysbios_knl_Semaphore_A_badContext__C                     
0000ba30  ti_sysbios_knl_Semaphore_A_noEvents__C                       
0000ba34  ti_sysbios_knl_Semaphore_A_overflow__C                       
0000ba38  ti_sysbios_knl_Semaphore_A_pendTaskDisabled__C               
0000ba3c  ti_sysbios_knl_Semaphore_Instance_State_pendQ__O             
0000ba40  ti_sysbios_knl_Semaphore_LM_pend__C                          
0000ba44  ti_sysbios_knl_Semaphore_LM_post__C                          
0000ba48  ti_sysbios_knl_Semaphore_Module__diagsEnabled__C             
0000ba4c  ti_sysbios_knl_Semaphore_Module__diagsIncluded__C            
0000ba50  ti_sysbios_knl_Semaphore_Module__diagsMask__C                
0000ba54  ti_sysbios_knl_Semaphore_Module__loggerFxn2__C               
0000ba58  ti_sysbios_knl_Semaphore_Module__loggerFxn4__C               
0000ba5c  ti_sysbios_knl_Semaphore_Module__loggerObj__C                
0000ba60  ti_sysbios_knl_Swi_LD_end__C                                 
0000ba64  ti_sysbios_knl_Swi_LM_begin__C                               
0000ba68  ti_sysbios_knl_Swi_LM_post__C                                
0000ba6c  ti_sysbios_knl_Swi_Module__diagsEnabled__C                   
0000ba70  ti_sysbios_knl_Swi_Module__diagsIncluded__C                  
0000ba74  ti_sysbios_knl_Swi_Module__diagsMask__C                      
0000ba78  ti_sysbios_knl_Swi_Module__loggerFxn1__C                     
0000ba7c  ti_sysbios_knl_Swi_Module__loggerFxn4__C                     
0000ba80  ti_sysbios_knl_Swi_Module__loggerObj__C                      
0000ba84  ti_sysbios_knl_Swi_Object__count__C                          
0000ba88  ti_sysbios_knl_Task_E_spOutOfBounds__C                       
0000ba8c  ti_sysbios_knl_Task_E_stackOverflow__C                       
0000ba90  ti_sysbios_knl_Task_LD_block__C                              
0000ba94  ti_sysbios_knl_Task_LD_exit__C                               
0000ba98  ti_sysbios_knl_Task_LD_ready__C                              
0000ba9c  ti_sysbios_knl_Task_LM_switch__C                             
0000baa0  ti_sysbios_knl_Task_Module_State_inactiveQ__O                
0000baa4  ti_sysbios_knl_Task_Module__diagsEnabled__C                  
0000baa8  ti_sysbios_knl_Task_Module__diagsIncluded__C                 
0000baac  ti_sysbios_knl_Task_Module__diagsMask__C                     
0000bab0  ti_sysbios_knl_Task_Module__loggerFxn2__C                    
0000bab4  ti_sysbios_knl_Task_Module__loggerFxn4__C                    
0000bab8  ti_sysbios_knl_Task_Module__loggerObj__C                     
0000babc  ti_sysbios_knl_Task_Object__count__C                         
0000bac0  ti_sysbios_knl_Task_allBlockedFunc__C                        
0000bac4  ti_sysbios_knl_Task_numConstructedTasks__C                   
0000bac8  ti_sysbios_utils_Load_LS_cpuLoad__C                          
0000bacc  ti_sysbios_utils_Load_Module__diagsEnabled__C                
0000bad0  ti_sysbios_utils_Load_Module__diagsIncluded__C               
0000bad4  ti_sysbios_utils_Load_Module__diagsMask__C                   
0000bad8  ti_sysbios_utils_Load_Module__loggerFxn1__C                  
0000badc  ti_sysbios_utils_Load_Module__loggerObj__C                   
0000bae0  ti_sysbios_utils_Load_postUpdate__C                          
0000bae4  ti_sysbios_utils_Load_windowInMs__C                          
0000bae8  ti_uia_loggers_LoggerStopMode_Module__diagsEnabled__C        
0000baec  ti_uia_loggers_LoggerStopMode_Module__diagsIncluded__C       
0000baf0  ti_uia_loggers_LoggerStopMode_Module__diagsMask__C           
0000baf4  ti_uia_loggers_LoggerStopMode_Object__count__C               
0000baf8  ti_uia_runtime_ILoggerSnapshot_Interface__BASE__C            
0000bafc  ti_uia_runtime_IUIATransfer_Interface__BASE__C               
0000bb00  xdc_runtime_Assert_E_assertFailed__C                         
0000bb04  xdc_runtime_Core_A_initializedParams__C                      
0000bb08  xdc_runtime_Core_Module__diagsEnabled__C                     
0000bb0c  xdc_runtime_Core_Module__diagsIncluded__C                    
0000bb10  xdc_runtime_Core_Module__diagsMask__C                        
0000bb14  xdc_runtime_Error_E_memory__C                                
0000bb18  xdc_runtime_Error_Module__diagsEnabled__C                    
0000bb1c  xdc_runtime_Error_Module__diagsIncluded__C                   
0000bb20  xdc_runtime_Error_Module__diagsMask__C                       
0000bb24  xdc_runtime_Error_Module__loggerFxn8__C                      
0000bb28  xdc_runtime_Error_Module__loggerObj__C                       
0000bb2c  xdc_runtime_Error_policyFxn__C                               
0000bb30  xdc_runtime_Error_raiseHook__C                               
0000bb34  xdc_runtime_IFilterLogger_Interface__BASE__C                 
0000bb38  xdc_runtime_IGateProvider_Interface__BASE__C                 
0000bb3c  xdc_runtime_IHeap_Interface__BASE__C                         
0000bb40  xdc_runtime_ILogger_Interface__BASE__C                       
0000bb44  xdc_runtime_IModule_Interface__BASE__C                       
0000bb48  xdc_runtime_Log_L_error__C                                   
0000bb4c  xdc_runtime_Memory_defaultHeapInstance__C                    
0000bb50  xdc_runtime_Startup_execImpl__C                              
0000bb54  xdc_runtime_Startup_lastFxns__A                              
0000bb58  xdc_runtime_Startup_maxPasses__C                             
0000bb5c  xdc_runtime_Startup_sfxnRts__C                               
0000bb60  xdc_runtime_Startup_sfxnTab__C                               
0000bb64  xdc_runtime_System_Module__gateObj__C                        
0000bb68  xdc_runtime_System_abortFxn__C                               
0000bb6c  xdc_runtime_System_exitFxn__C                                
0000bb70  xdc_runtime_System_extendFxn__C                              
0000bb74  xdc_runtime_System_maxAtexitHandlers__C                      
0000bb78  xdc_runtime_Text_charTab__C                                  
0000bb7c  xdc_runtime_Text_nameEmpty__C                                
0000bb80  xdc_runtime_Text_nameStatic__C                               
0000bb84  xdc_runtime_Text_nameUnknown__C                              
0000bb88  xdc_runtime_Text_nodeTab__C                                  
0000bb8c  xdc_runtime_Text_visitRopeFxn__C                             
0000bb90  ti_sysbios_family_arm_m3_Timer_Module__id__C                 
0000bb92  ti_sysbios_family_arm_m3_TimestampProvider_configTimer__C    
0000bb94  ti_sysbios_gates_GateMutex_Module__id__C                     
0000bb96  ti_sysbios_hal_Hwi_Module__id__C                             
0000bb98  ti_sysbios_heaps_HeapMem_Module__id__C                       
0000bb9a  ti_sysbios_knl_Clock_Module__id__C                           
0000bb9c  ti_sysbios_knl_Clock_Module__loggerDefined__C                
0000bb9e  ti_sysbios_knl_Semaphore_Module__id__C                       
0000bba0  ti_sysbios_knl_Semaphore_Module__loggerDefined__C            
0000bba2  ti_sysbios_knl_Swi_Module__id__C                             
0000bba4  ti_sysbios_knl_Swi_Module__loggerDefined__C                  
0000bba6  ti_sysbios_knl_Task_Module__id__C                            
0000bba8  ti_sysbios_knl_Task_Module__loggerDefined__C                 
0000bbaa  ti_sysbios_utils_Load_Module__id__C                          
0000bbac  ti_sysbios_utils_Load_Module__loggerDefined__C               
0000bbae  ti_sysbios_utils_Load_updateInIdle__C                        
0000bbb0  ti_uia_loggers_LoggerStopMode_Module__id__C                  
0000bbb2  ti_uia_loggers_LoggerStopMode_isTimestampEnabled__C          
0000bbb4  xdc_runtime_Core_Module__id__C                               
0000bbb6  xdc_runtime_Error_Module__loggerDefined__C                   
0000bbb8  xdc_runtime_Error_maxDepth__C                                
0000bbba  xdc_runtime_Memory_Module__id__C                             
0000bbbc  xdc_runtime_Text_charCnt__C                                  
0000bbbe  xdc_runtime_Text_isLoaded__C                                 
0000bbc0  xdc_runtime_Text_registryModsLastId__C                       
0000bbc2  xdc_runtime_Text_unnamedModsLastId__C                        
0000bbc8  __TI_static_base__                                           
0000bf08  __TI_Handler_Table_Base                                      
0000bf14  __TI_Handler_Table_Limit                                     
0000bf28  __TI_CINIT_Base                                              
0000bf40  __TI_CINIT_Limit                                             
20000000  ti_sysbios_family_arm_m3_Hwi_ramVectors                      
20000200  ti_sysbios_knl_Task_Instance_State_0_stack__A                
20000600  ti_sysbios_knl_Task_Instance_State_1_stack__A                
20000a00  ti_sysbios_knl_Task_Instance_State_2_stack__A                
20000c00  ti_sysbios_heaps_HeapMem_Instance_State_0_buf__A             
20001400  ti_uia_loggers_LoggerStopMode_Instance_State_1_packetArray__A
20001800  ti_uia_loggers_LoggerStopMode_Instance_State_2_packetArray__A
20001c00  ti_uia_loggers_LoggerStopMode_Instance_State_0_packetArray__A
20001e00  ti_sysbios_family_arm_m3_Hwi_dispatchTable                   
20001f40  __CIOBUF_                                                    
20002060  uartMSP432Objects                                            
20002160  __TI_tmpnams                                                 
20002280  spiMSP432DMAObjects                                          
200022f0  uartMSP432RingBuffer                                         
20002360  masterTransaction                                            
20002374  parmbuf                                                      
2000237c  masterRxBuffer                                               
20002380  ti_uia_loggers_LoggerStopMode_Instance_State_0_hdr__A        
200023b0  uartParams                                                   
200023d4  uart_tx_buffer                                               
200023e8  ui32_8_convert                                               
200023fc  masterSpi                                                    
20002400  ti_uia_loggers_LoggerStopMode_Instance_State_1_hdr__A        
20002430  udmaMSP432Object                                             
20002438  masterTxBuffer                                               
2000243c  transferOK                                                   
20002440  uart                                                         
20002480  ti_uia_loggers_LoggerStopMode_Instance_State_2_hdr__A        
200024b0  _ftable                                                      
200025a0  ti_sysbios_knl_Task_Object__table__V                         
20002684  PowerMSP432_perfLevels                                       
20002720  ti_uia_loggers_LoggerStopMode_Object__table__V               
200027bc  ti_sysbios_utils_Load_Module__state__V                       
20002854  ti_sysbios_knl_Swi_Module_State_0_readyQ__A                  
200028d4  ti_sysbios_knl_Task_Module_State_0_readyQ__A                 
20002954  _device                                                      
200029cc  _stream                                                      
20002a1c  ti_sysbios_family_arm_msp432_Timer_Object__table__V          
20002a68  ti_sysbios_knl_Task_Module__state__V                         
20002aac  ti_sysbios_gates_GateMutex_Object__table__V                  
20002ae4  ti_sysbios_family_arm_m3_Hwi_Module__state__V                
20002b48  ti_sysbios_family_arm_m3_Hwi_Object__table__V                
20002b78  ti_sysbios_family_arm_m3_Timer_Object__table__V              
20002ba8  ti_sysbios_knl_Swi_Object__table__V                          
20002bd8  ti_sysbios_knl_Clock_Module__state__V                        
20002c04  PowerMSP432_module                                           
20002c2c  ti_sysbios_knl_Semaphore_Object__table__V                    
20002c54  ti_sysbios_BIOS_Module__state__V                             
20002c78  ti_sysbios_family_arm_msp432_Timer_Module_State_0_device__A  
20002c98  ti_sysbios_knl_Swi_Module__state__V                          
20002cb4  ti_sysbios_heaps_HeapMem_Object__table__V                    
20002ccc  gpioPinConfigs                                               
20002ce0  __TI_ft_end                                                  
20002ce4  __aeabi_stdin                                                
20002ce8  __aeabi_stdout                                               
20002cec  __aeabi_stderr                                               
20002cf0  ti_sysbios_family_arm_msp432_Timer_Module_State_0_handles__A 
20002d00  __TI_cleanup_ptr                                             
20002d04  __TI_dtors_ptr                                               
20002d08  __TI_enable_exit_profile_output                              
20002d0c  ti_sysbios_family_arm_m3_Timer_Module__state__V              
20002d18  ti_sysbios_family_arm_msp432_ClockFreqs_Module__state__V     
20002d24  ti_sysbios_family_arm_msp432_Timer_Module__state__V          
20002d30  ti_sysbios_knl_Task_Module__root__V                          
20002d3c  ti_uia_runtime_QueueDescriptor_Module__state__V              
20002d48  _lock                                                        
20002d4c  _unlock                                                      
20002d58  gpioCallbackFunctions                                        
20002d60  ti_uia_runtime_QueueDescriptor_gPtrToFirstDescriptor         
20002d64  ti_uia_runtime_QueueDescriptor_gUpdateCount                  
20002d68  ti_sysbios_family_arm_m3_Hwi_Module__root__V                 
20002d70  ti_sysbios_gates_GateHwi_Module__root__V                     
20002d78  ti_sysbios_gates_GateMutex_Module__root__V                   
20002d80  ti_sysbios_heaps_HeapMem_Module__root__V                     
20002d88  ti_sysbios_knl_Clock_Module__root__V                         
20002d90  ti_sysbios_knl_Queue_Module__root__V                         
20002d98  ti_sysbios_knl_Semaphore_Module__root__V                     
20002da0  ti_uia_loggers_LoggerStopMode_Module__root__V                
20002da8  xdc_runtime_Registry_Module__state__V                        
20002db0  xdc_runtime_Startup_Module__state__V                         
20002db8  xdc_runtime_System_Module_State_0_atexitHandlers__A          
20002dc0  xdc_runtime_System_Module__state__V                          
20002dd0  main_func_sp                                                 
20002dd4  ti_sysbios_family_arm_m3_Hwi_Module_State_0_excContext__A    
20002dd8  ti_sysbios_family_arm_m3_Hwi_Module_State_0_excStack__A      
20002ddc  ti_sysbios_family_arm_m3_TimestampProvider_Module__state__V  
20002de0  ti_sysbios_gates_GateHwi_Object__table__V                    
20002de4  ti_sysbios_knl_Task_Module_State_0_idleTask__A               
20002de8  ti_sysbios_utils_Load_Module_State_0_runningTask__A          
20002dec  ti_sysbios_utils_Load_Module_State_0_taskStartTime__A        
20002df0  xdc_runtime_Memory_Module__state__V                          
20002df4  ti_sysbios_family_arm_m3_Hwi_Module_State_0_excActive__A     
20002df6  xdc_runtime_Error_Module__state__V                           
20002df8  tx_size                                                      
2000fd00  __stack                                                      
20010000  __STACK_END                                                  
4000480c  WDTCTL_SYM                                                   
e000e000  ti_sysbios_family_arm_m3_Hwi_nvic                            
ffffffff  __TI_pprof_out_hndl                                          
ffffffff  __TI_prof_data_size                                          
ffffffff  __TI_prof_data_start                                         
ffffffff  __binit__                                                    
ffffffff  __c_args__                                                   
ffffffff  binit                                                        
UNDEFED   SHT$$INIT_ARRAY$$Base                                        
UNDEFED   SHT$$INIT_ARRAY$$Limit                                       

[891 symbols]
