******************************************************************************
                  TI ARM Linker PC v18.1.2                     
******************************************************************************
>> Linked Thu Mar 14 12:16:22 2019

OUTPUT FILE NAME:   <TIDA-01614-Firmware.out>
ENTRY POINT SYMBOL: "_c_int00"  address: 00008ee5


MEMORY CONFIGURATION

         name            origin    length      used     unused   attr    fill
----------------------  --------  ---------  --------  --------  ----  --------
  MAIN                  00000000   00040000  0000f484  00030b7c  R  X
  INFO                  00200000   00004000  00000000  00004000  R  X
  SRAM_CODE             01000000   00010000  00000000  00010000  RW X
  SRAM_DATA             20000000   00010000  0000b3ec  00004c14  RW  


SEGMENT ALLOCATION MAP

run origin  load origin   length   init length attrs members
----------  ----------- ---------- ----------- ----- -------
00000000    00000000    0000f490   0000f490    r-x
  00000000    00000000    0000003c   0000003c    r-- .resetVecs
  00000040    00000040    0000c292   0000c292    r-x .text
  0000c2d8    0000c2d8    00002d66   00002d66    r-- .const
  0000f040    0000f040    00000450   00000450    r-- .cinit
20000000    20000000    00000140   00000000    rw-
  20000000    20000000    00000140   00000000    rw- .vecs
20000200    20000200    0000aeac   00000000    rw-
  20000200    20000200    0000a2e0   00000000    rw- .bss
  2000a4e0    2000a4e0    00000bcc   00000000    rw- .data
2000fc00    2000fc00    00000400   00000000    rw-
  2000fc00    2000fc00    00000400   00000000    rw- .stack


SECTION ALLOCATION MAP

 output                                  attributes/
section   page    origin      length       input sections
--------  ----  ----------  ----------   ----------------
.text      0    00000040    0000c292     
                  00000040    000009c0     rtsv7M4_T_le_v4SPD16_eabi.lib : e_pow.c.obj (.text:pow)
                  00000a00    00000450     MSP432_UART_TX.obj (.text:UART_packet_format_and_send)
                  00000e50    00000430     sysbios.aem4f : BIOS.obj (.text:ti_sysbios_family_arm_m3_Hwi_excDumpRegs__I)
                  00001280    0000034c     ti.targets.arm.rtsarm.aem4f : System.oem4f (.text:xdc_runtime_System_doPrint__I)
                  000015cc    00000004     msp432p4xx_driverlib.lib : cpu.o (.text:CPU_wfi)
                  000015d0    000002ec     sysbios.aem4f : BIOS.obj (.text:ti_sysbios_knl_Semaphore_pend__E)
                  000018bc    00000298     ADS1292R.obj (.text:ADS_main_task)
                  00001b54    0000026c     ADS1292R.obj (.text:ADS_PowerOn_Init)
                  00001dc0    0000026c     sysbios.aem4f : BIOS.obj (.text:ti_sysbios_heaps_HeapMem_free__E)
                  0000202c    00000264     drivers_MSP432P401R.aem4f : PowerMSP432.oem4f (.text:Power_sleep)
                  00002290    00000260                               : UARTMSP432.oem4f (.text:UARTMSP432_open)
                  000024f0    00000250     sysbios.aem4f : BIOS.obj (.text:ti_sysbios_heaps_HeapMem_alloc__E)
                  00002740    00000208                   : BIOS.obj (.text:ti_sysbios_knl_Task_sleep__E)
                  00002948    000001fc                   : BIOS.obj (.text:ti_sysbios_family_arm_m3_Hwi_excHandlerMax__I)
                  00002b44    000001b6     rtsv7M4_T_le_v4SPD16_eabi.lib : fd_add_t2.asm.obj (.text)
                  00002cfa    000001a0     msp432p4xx_driverlib.lib : pcm.o (.text:__PCM_setPowerStateAdvanced)
                  00002e9a    00000002     power_tirtos_MSP432P401R.aem4f : PowerMSP432_tirtos.oem4f (.text:PowerMSP432_initPolicy)
                  00002e9c    00000184     MSP432_SPI.obj (.text:MSP_ADS_SPI_read_ecg_resp_data)
                  00003020    0000017c     drivers_MSP432P401R.aem4f : SPIMSP432DMA.oem4f (.text:SPIMSP432DMA_open)
                  0000319c    00000178                               : I2CMSP432.oem4f (.text:I2CMSP432_open)
                  00003314    00000004     msp432p4xx_driverlib.lib : spi.o (.text:EUSCI_A_SPI_getReceiveBufferAddressForDMA)
                  00003318    00000174     sysbios.aem4f : BIOS.obj (.text:ti_sysbios_family_arm_m3_Hwi_excBusFault__I)
                  0000348c    00000004     msp432p4xx_driverlib.lib : spi.o (.text:EUSCI_A_SPI_getTransmitBufferAddressForDMA)
                  00003490    00000164     sysbios.aem4f : BIOS.obj (.text:ti_sysbios_family_arm_m3_Hwi_excUsageFault__I)
                  000035f4    00000158     rtsv7M4_T_le_v4SPD16_eabi.lib : e_sqrt.c.obj (.text:sqrt)
                  0000374c    00000004     msp432p4xx_driverlib.lib : spi.o (.text:EUSCI_B_SPI_getReceiveBufferAddressForDMA)
                  00003750    00000148     sysbios.aem4f : BIOS.obj (.text:ti_sysbios_family_arm_m3_Hwi_excMemFault__I)
                  00003898    00000140     drivers_MSP432P401R.aem4f : GPIOMSP432.oem4f (.text:GPIO_setConfig)
                  000039d8    00000140     sysbios.aem4f : BIOS.obj (.text:ti_sysbios_knl_Semaphore_post__E)
                  00003b18    0000013c     AFE4403.obj (.text:AFE_main_task)
                  00003c54    00000004     msp432p4xx_driverlib.lib : spi.o (.text:EUSCI_B_SPI_getTransmitBufferAddressForDMA)
                  00003c58    0000013c     sysbios.aem4f : BIOS.obj (.text:ti_sysbios_heaps_HeapMem_Instance_init__E)
                  00003d94    00000004     tirtosport.aem4f : HwiP_tirtos.oem4f (.text:HwiP_disable)
                  00003d98    0000013c     sysbios.aem4f : BIOS.obj (.text:ti_sysbios_knl_Clock_workFunc__E)
                  00003ed4    00000004     msp432p4xx_driverlib.lib : i2c.o (.text:I2C_setSlaveAddress)
                  00003ed8    00000138     sysbios.aem4f : BIOS.obj (.text:ti_sysbios_family_arm_m3_Hwi_dispatchC__I)
                  00004010    00000138     main_rtos_pem4f.oem4f (.text:ti_uia_loggers_LoggerStopMode_writeMemoryRange__E)
                  00004148    00000136     rtsv7M4_T_le_v4SPD16_eabi.lib : fd_div_t2.asm.obj (.text)
                  0000427e    00000002     drivers_MSP432P401R.aem4f : SPIMSP432DMA.oem4f (.text:SPIMSP432DMA_serviceISR)
                  00004280    00000130     Pace_detect.obj (.text:Pacedetect_main_task)
                  000043b0    0000011c     sysbios.aem4f : BIOS.obj (.text:ti_sysbios_knl_Clock_Instance_init__E)
                  000044cc    00000004     drivers_MSP432P401R.aem4f : List.oem4f (.text:List_head)
                  000044d0    0000011c     sysbios.aem4f : BIOS.obj (.text:ti_sysbios_knl_Swi_run__I)
                  000045ec    00000118     drivers_MSP432P401R.aem4f : I2CMSP432.oem4f (.text:I2CMSP432_hwiIntFxn)
                  00004704    00000118     ti.targets.arm.rtsarm.aem4f : Error.oem4f (.text:xdc_runtime_Error_policyDefault__E)
                  0000481c    00000114     main_rtos_pem4f.oem4f (.text:ti_uia_loggers_LoggerStopMode_write8__E)
                  00004930    00000110     rtsv7M4_T_le_v4SPD16_eabi.lib : s_scalbn.c.obj (.text:scalbn)
                  00004a40    00000100     ti.targets.arm.rtsarm.aem4f : Core-mem.oem4f (.text:xdc_runtime_Core_createObject__I)
                  00004b40    000000fc     rtsv7M4_T_le_v4SPD16_eabi.lib : fd_mul_t2.asm.obj (.text)
                  00004c3c    000000fc     main_rtos_pem4f.oem4f (.text:ti_uia_loggers_LoggerStopMode_write4__E)
                  00004d38    000000f8     ti.targets.arm.rtsarm.aem4f : Startup.oem4f (.text:xdc_runtime_Startup_startMods__I)
                  00004e30    000000f8     main_rtos_pem4f.oem4f (.text:xdc_runtime_System_printfExtend__I)
                  00004f28    000000f0     drivers_MSP432P401R.aem4f : PowerMSP432.oem4f (.text:initPerfControl)
                  00005018    000000f0     main_rtos_pem4f.oem4f (.text:ti_uia_loggers_LoggerStopMode_write2__E)
                  00005108    000000ec     sysbios.aem4f : m3_Hwi_asm.obj (.text:ti_sysbios_family_arm_m3_Hwi_dispatch__I)
                  000051f4    000000ec     main_rtos_pem4f.oem4f (.text:ti_uia_loggers_LoggerStopMode_write1__E)
                  000052e0    000000e0     msp432p4xx_driverlib.lib : cs.o (.text:CS_initClockSignal)
                  000053c0    000000dc     MSP432_SPI.obj (.text:MSP_ADS_SPI_read_register)
                  0000549c    000000dc     msp432p4xx_driverlib.lib : pcm.o (.text:__PCM_setPowerModeAdvanced)
                  00005578    000000dc     rtsv7M4_T_le_v4SPD16_eabi.lib : setvbuf.c.obj (.text:setvbuf)
                  00005654    000000dc     main_rtos_pem4f.oem4f (.text:ti_uia_loggers_LoggerStopMode_write0__E)
                  00005730    000000d4     MSP432_SPI.obj (.text:MSP_AFE_SPI_read)
                  00005804    000000d0     MSP432_SPI.obj (.text:MSP_ADS_SPI_write_register)
                  000058d4    000000cc     msp432p4xx_driverlib.lib : dma.o (.text:DMA_assignChannel)
                  000059a0    000000cc     sysbios.aem4f : BIOS.obj (.text:ti_sysbios_knl_Task_schedule__I)
                  00005a6c    000000cc     ti.targets.arm.rtsarm.aem4f : Core-smem.oem4f (.text:xdc_runtime_Core_constructObject__I)
                  00005b38    000000c0     sysbios.aem4f : BIOS.obj (.text:ti_sysbios_knl_Task_exit__E)
                  00005bf8    000000bc                   : BIOS.obj (.text:ti_sysbios_family_arm_m3_Hwi_excDebugMon__I)
                  00005cb4    00000004     drivers_MSP432P401R.aem4f : List.oem4f (.text:List_next)
                  00005cb8    000000bc     sysbios.aem4f : BIOS.obj (.text:ti_sysbios_family_arm_m3_Hwi_excHardFault__I)
                  00005d74    00000004     drivers_MSP432P401R.aem4f : PowerMSP432.oem4f (.text:PowerMSP432_getNumPerfLevels)
                  00005d78    000000bc     sysbios.aem4f : BIOS.obj (.text:ti_sysbios_knl_Task_startCore__E)
                  00005e34    00000004     rtsv7M4_T_le_v4SPD16_eabi.lib : exit.c.obj (.text:abort:abort)
                  00005e38    000000bc     sysbios.aem4f : BIOS.obj (.text:ti_sysbios_utils_Load_updateLoads__E)
                  00005ef4    000000b8     MSP432_SPI.obj (.text:MSP_ADS_SPI_write_command)
                  00005fac    000000b4     MSP432_UART.obj (.text:MSP_UART_initialise)
                  00006060    000000b4     drivers_MSP432P401R.aem4f : SPIMSP432DMA.oem4f (.text:configDMA)
                  00006114    00000004     main_rtos_pem4f.oem4f (.text:ti_sysbios_BIOS_RtsGateProxy_enter__E)
                  00006118    000000b4     sysbios.aem4f : BIOS.obj (.text:ti_sysbios_gates_GateMutex_enter__E)
                  000061cc    00000004     main_rtos_pem4f.oem4f (.text:ti_sysbios_BIOS_RtsGateProxy_leave__E)
                  000061d0    000000b4     sysbios.aem4f : BIOS.obj (.text:ti_sysbios_knl_Task_checkStacks__E)
                  00006284    000000b0     MSP432_SPI.obj (.text:MSP_AFE_SPI_write)
                  00006334    000000b0     MSP432_I2C.obj (.text:MSP_TMP_I2C_write)
                  000063e4    000000b0     drivers_MSP432P401R.aem4f : UARTMSP432.oem4f (.text:UARTMSP432_readPolling)
                  00006494    000000b0     msp432p4xx_driverlib.lib : pcm.o (.text:__PCM_setCoreVoltageLevelAdvanced)
                  00006544    00000004     main_rtos_pem4f.oem4f (.text:ti_sysbios_family_arm_m3_Hwi_destruct)
                  00006548    000000b0     sysbios.aem4f : BIOS.obj (.text:ti_sysbios_knl_Task_yield__E)
                  000065f8    000000b0                   : BIOS.obj (.text:ti_sysbios_utils_Load_idleFxn__E)
                  000066a8    000000ac     MSP432_I2C.obj (.text:MSP_TMP_I2C_read)
                  00006754    00000004     main_rtos_pem4f.oem4f (.text:ti_sysbios_family_arm_m3_TaskSupport_Module__startupDone__S)
                  00006758    000000ac     sysbios.aem4f : BIOS.obj (.text:ti_sysbios_knl_Swi_post__E)
                  00006804    00000004     main_rtos_pem4f.oem4f (.text:ti_sysbios_heaps_HeapMem_Module_GateProxy_enter__E)
                  00006808    000000a8     sysbios.aem4f : BIOS.obj (.text:ti_sysbios_family_arm_msp432_Timer_periodicStub__E)
                  000068b0    000000a8                   : BIOS.obj (.text:ti_sysbios_knl_Task_blockI__E)
                  00006958    000000a8                   : BIOS.obj (.text:ti_sysbios_knl_Task_postInit__I)
                  00006a00    000000a4     MSP432_I2C.obj (.text:MSP_ADC_I2C_write)
                  00006aa4    000000a4     MSP432_I2C.obj (.text:MSP_DAC_I2C_write)
                  00006b48    000000a4     drivers_MSP432P401R.aem4f : UARTMSP432.oem4f (.text:UARTMSP432_control)
                  00006bec    00000004     main_rtos_pem4f.oem4f (.text:ti_sysbios_heaps_HeapMem_Module_GateProxy_leave__E)
                  00006bf0    000000a4     sysbios.aem4f : BIOS.obj (.text:ti_sysbios_knl_Clock_Instance_finalize__E)
                  00006c94    000000a0     auto_init.aem4f : auto_init.oem4f (.text)
                  00006d34    000000a0     ti.targets.arm.rtsarm.aem4f : Text.oem4f (.text:xdc_runtime_Text_putMod__E)
                  00006dd4    0000009c     drivers_MSP432P401R.aem4f : UARTMSP432.oem4f (.text:readTaskBlocking)
                  00006e70    0000009c     rtsv7M4_T_le_v4SPD16_eabi.lib : memcpy_t2.asm.obj (.text)
                  00006f0c    00000004     main_rtos_pem4f.oem4f (.text:ti_sysbios_knl_Clock_TimerProxy_getMaxTicks__E)
                  00006f10    0000009c     sysbios.aem4f : BIOS.obj (.text:ti_sysbios_knl_Semaphore_Instance_init__E)
                  00006fac    0000009a     ti.targets.arm.rtsarm.aem4f : Text.oem4f (.text:xdc_runtime_Text_putSite__E)
                  00007046    00000002     rtsv7M4_T_le_v4SPD16_eabi.lib : _lock.c.obj (.text:_nop)
                  00007048    00000094     MSP432_SPI.obj (.text:MSP_SPI_initialise)
                  000070dc    00000094     msp432p4xx_driverlib.lib : uart.o (.text:UART_initModule)
                  00007170    00000094     sysbios.aem4f : BIOS.obj (.text:ti_sysbios_family_arm_m3_Hwi_Instance_init__E)
                  00007204    00000004     main_rtos_pem4f.oem4f (.text:ti_sysbios_knl_Clock_destruct)
                  00007208    00000094     sysbios.aem4f : BIOS.obj (.text:ti_sysbios_family_arm_m3_Hwi_initNVIC__E)
                  0000729c    00000092     drivers_MSP432P401R.aem4f : I2CMSP432.oem4f (.text:I2CMSP432_cancel)
                  0000732e    00000002     rtsv7M4_T_le_v4SPD16_eabi.lib : div0.asm.obj (.text)
                  00007330    00000090     sysbios.aem4f : BIOS.obj (.text:ti_sysbios_knl_Task_unblockI__E)
                  000073c0    00000090     ti.uia.loggers.aem4f : LoggerStopMode.oem4f (.text:ti_uia_loggers_LoggerStopMode_initQueueDescriptor__E)
                  00007450    0000008c     drivers_MSP432P401R.aem4f : I2CMSP432.oem4f (.text:I2CMSP432_transfer)
                  000074dc    0000008c     rtsv7M4_T_le_v4SPD16_eabi.lib : fputc.c.obj (.text:fputc)
                  00007568    0000008c     sysbios.aem4f : m3_TaskSupport_asm.obj (.text:ti_sysbios_family_arm_m3_TaskSupport_buildTaskStack)
                  000075f4    0000008a     drivers_MSP432P401R.aem4f : UARTMSP432.oem4f (.text:UARTMSP432_close)
                  0000767e    00000088     ADS1292R.obj (.text:ADS_reset)
                  00007706    00000088     msp432p4xx_driverlib.lib : spi.o (.text:SPI_initMaster)
                  0000778e    00000002     main_rtos_pem4f.oem4f (.text:ti_sysbios_BIOS_nullFunc__I)
                  00007790    00000088     sysbios.aem4f : BIOS.obj (.text:ti_sysbios_family_arm_msp432_Timer_Module_startup__E)
                  00007818    00000086     rtsv7M4_T_le_v4SPD16_eabi.lib : fd_cmp_t2.asm.obj (.text:__aeabi_cdcmple)
                  0000789e    00000086                                   : fd_cmp_t2.asm.obj (.text:__aeabi_cdrcmple)
                  00007924    00000084     ADS1292R.obj (.text:ADS_read_ecg_resp_data)
                  000079a8    00000084     drivers_MSP432P401R.aem4f : UARTMSP432.oem4f (.text:initHw)
                  00007a2c    00000004     main_rtos_pem4f.oem4f (.text:ti_sysbios_knl_Queue_destruct)
                  00007a30    00000084     sysbios.aem4f : BIOS.obj (.text:ti_sysbios_family_arm_m3_Hwi_postInit__I)
                  00007ab4    00000084     drivers_MSP432P401R.aem4f : UARTMSP432.oem4f (.text:writeData)
                  00007b38    00000082                               : UARTMSP432.oem4f (.text:readIsrTextCallback)
                  00007bba    00000002     main_rtos_pem4f.oem4f (.text:ti_uia_loggers_LoggerStopMode_setFilterLevel__E)
                  00007bbc    00000080     msp432p4xx_driverlib.lib : dma.o (.text:DMA_setChannelTransfer)
                  00007c3c    00000080     TMP116.obj (.text:TMP_main_task)
                  00007cbc    00000004     main_rtos_pem4f.oem4f (.text:ti_sysbios_knl_Semaphore_destruct)
                  00007cc0    00000080     sysbios.aem4f : BIOS.obj (.text:ti_sysbios_family_arm_msp432_Timer_startup__E)
                  00007d40    0000007c     msp432p4xx_driverlib.lib : pcm.o (.text:PCM_gotoLPM3)
                  00007dbc    0000007c     rtsv7M4_T_le_v4SPD16_eabi.lib : fflush.c.obj (.text:fflush)
                  00007e38    0000007a     drivers_MSP432P401R.aem4f : UARTMSP432.oem4f (.text:UARTMSP432_write)
                  00007eb2    0000007a                               : UARTMSP432.oem4f (.text:readTaskCallback)
                  00007f2c    0000007a     rtsv7M4_T_le_v4SPD16_eabi.lib : memset_t2.asm.obj (.text)
                  00007fa6    00000002     ti.uia.loggers.aem4f : LoggerStopMode.oem4f (.text:ti_uia_loggers_LoggerStopMode_setPriority__E)
                  00007fa8    00000074     rtsv7M4_T_le_v4SPD16_eabi.lib : fclose.c.obj (.text:__TI_closefile)
                  0000801c    00000074     drivers_MSP432P401R.aem4f : UARTMSP432.oem4f (.text:readIsrTextBlocking)
                  00008090    00000074     sysbios.aem4f : BIOS.obj (.text:ti_sysbios_knl_Clock_start__E)
                  00008104    00000074     ti.uia.runtime.aem4f : QueueDescriptor.oem4f (.text:ti_uia_runtime_QueueDescriptor_addToList__E)
                  00008178    00000070     sysbios.aem4f : BIOS.obj (.text:ti_sysbios_family_arm_m3_TimestampProvider_get64__E)
                  000081e8    0000006d     ti.targets.arm.rtsarm.aem4f : System.oem4f (.text:xdc_runtime_System_formatNum__I)
                  00008255    00000003     --HOLE-- [fill = 0]
                  00008258    0000006c     sysbios.aem4f : BIOS.obj (.text:ti_sysbios_knl_Swi_restoreHwi__E)
                  000082c4    0000006c     ti.targets.arm.rtsarm.aem4f : Error.oem4f (.text:xdc_runtime_Error_print__E)
                  00008330    0000006c                                 : Memory.oem4f (.text:xdc_runtime_Memory_alloc__E)
                  0000839c    00000068     rtsv7M4_T_le_v4SPD16_eabi.lib : hostlseek.c.obj (.text:HOSTlseek)
                  00008404    00000068                                   : hostrename.c.obj (.text:HOSTrename)
                  0000846c    00000068                                   : copy_decompress_lzss.c.obj (.text:decompress:lzss:__TI_decompress_lzss)
                  000084d4    00000068     drivers_MSP432P401R.aem4f : I2CMSP432.oem4f (.text:primeTransfer)
                  0000853c    00000066                               : I2CMSP432.oem4f (.text:I2CMSP432_close)
                  000085a2    00000066     ti.uia.loggers.aem4f : LoggerStopMode.oem4f (.text:ti_uia_loggers_LoggerStopMode_flush__E)
                  00008608    00000066     ti.targets.arm.rtsarm.aem4f : Core-mem.oem4f (.text:xdc_runtime_Core_deleteObject__I)
                  0000866e    00000002     --HOLE-- [fill = 0]
                  00008670    00000064     MSP432_I2C.obj (.text:MSP_I2C_initialize)
                  000086d4    00000064     MSP432_SPI.obj (.text:Set_SPI_mode)
                  00008738    00000064     drivers_MSP432P401R.aem4f : UARTMSP432.oem4f (.text:UARTMSP432_writePolling)
                  0000879c    00000064     rtsv7M4_T_le_v4SPD16_eabi.lib : fseek.c.obj (.text:fseek)
                  00008800    00000062     tirtosport.aem4f : HwiP_tirtos.oem4f (.text:HwiP_create)
                  00008862    00000062     rtsv7M4_T_le_v4SPD16_eabi.lib : _io_perm.c.obj (.text:__TI_wrt_ok)
                  000088c4    00000060                                   : hostopen.c.obj (.text:HOSTopen)
                  00008924    00000004     ti.uia.loggers.aem4f : LoggerStopMode.oem4f (.text:ti_uia_loggers_LoggerStopMode_getContents__E)
                  00008928    00000060     sysbios.aem4f : BIOS.obj (.text:ti_sysbios_family_arm_m3_TimestampProvider_get32__E)
                  00008988    00000060                   : BIOS.obj (.text:ti_sysbios_knl_Clock_logTick__E)
                  000089e8    00000060                   : BIOS.obj (.text:ti_sysbios_utils_Load_logCPULoad__I)
                  00008a48    0000005c     ADS1292R.obj (.text:ADS_hard_stop)
                  00008aa4    0000005c     drivers_MSP432P401R.aem4f : GPIOMSP432.oem4f (.text:GPIO_init)
                  00008b00    0000005c     rtsv7M4_T_le_v4SPD16_eabi.lib : close.c.obj (.text:close)
                  00008b5c    00000004     main_rtos_pem4f.oem4f (.text:ti_uia_loggers_LoggerStopMode_getFilterLevel__E)
                  00008b60    0000005c     sysbios.aem4f : BIOS.obj (.text:ti_sysbios_knl_Swi_schedule__I)
                  00008bbc    00000004     ti.uia.loggers.aem4f : LoggerStopMode.oem4f (.text:ti_uia_loggers_LoggerStopMode_getInstanceId__E)
                  00008bc0    0000005c     sysbios.aem4f : BIOS.obj (.text:ti_sysbios_knl_Task_Module_startup__E)
                  00008c1c    0000005b     ti.targets.arm.rtsarm.aem4f : Text.oem4f (.text:xdc_runtime_Text_putLab__E)
                  00008c77    00000001     --HOLE-- [fill = 0]
                  00008c78    0000005a     tirtosport.aem4f : ClockP_tirtos.oem4f (.text:ClockP_create)
                  00008cd2    0000005a     drivers_MSP432P401R.aem4f : SPIMSP432DMA.oem4f (.text:SPIMSP432DMA_close)
                  00008d2c    00000058     rtsv7M4_T_le_v4SPD16_eabi.lib : hostread.c.obj (.text:HOSTread)
                  00008d84    00000058                                   : hostwrite.c.obj (.text:HOSTwrite)
                  00008ddc    00000058     MSP432_UART_TX.obj (.text:MSP432_UART_main_task)
                  00008e34    00000058     drivers_MSP432P401R.aem4f : SPIMSP432DMA.oem4f (.text:SPIMSP432DMA_transfer)
                  00008e8c    00000058     tirtosport.aem4f : SemaphoreP_tirtos.oem4f (.text:SemaphoreP_create)
                  00008ee4    00000058     boot.aem4f : boot.oem4f (.text)
                  00008f3c    00000058     main_rtos_pem4f.oem4f (.text:ti_sysbios_family_arm_m3_Hwi_construct)
                  00008f94    00000058     sysbios.aem4f : m3_Hwi_asm_switch.obj (.text:ti_sysbios_family_arm_m3_Hwi_initStacks__E)
                  00008fec    00000004     ti.uia.loggers.aem4f : LoggerStopMode.oem4f (.text:ti_uia_loggers_LoggerStopMode_getMaxLength__E)
                  00008ff0    00000058     sysbios.aem4f : BIOS.obj (.text:ti_sysbios_family_arm_m3_Timer_setPeriod__E)
                  00009048    00000054     AFE4403.obj (.text:AFE4403_reg_read)
                  0000909c    00000054     drivers_MSP432P401R.aem4f : GPIOMSP432.oem4f (.text:GPIO_hwiIntFxn)
                  000090f0    00000054                               : GPIOMSP432.oem4f (.text:GPIO_setCallback)
                  00009144    00000054                               : I2CMSP432.oem4f (.text:initHw)
                  00009198    00000054     sysbios.aem4f : BIOS.obj (.text:ti_sysbios_family_arm_m3_Timer_start__E)
                  000091ec    00000004     ti.uia.loggers.aem4f : LoggerStopMode.oem4f (.text:ti_uia_loggers_LoggerStopMode_getPriority__E)
                  000091f0    00000054     sysbios.aem4f : BIOS.obj (.text:ti_sysbios_family_arm_msp432_Timer_initDevice__I)
                  00009244    00000004     ti.uia.loggers.aem4f : LoggerStopMode.oem4f (.text:ti_uia_loggers_LoggerStopMode_getTransferType__E)
                  00009248    00000054     sysbios.aem4f : BIOS.obj (.text:ti_sysbios_family_arm_msp432_init_Boot_configureClocksHigh)
                  0000929c    00000054     ti.targets.arm.rtsarm.aem4f : Assert.oem4f (.text:xdc_runtime_Assert_raise__I)
                  000092f0    00000052     drivers_MSP432P401R.aem4f : UARTMSP432.oem4f (.text:UARTMSP432_writeCancel)
                  00009342    00000002     --HOLE-- [fill = 0]
                  00009344    00000050     msp432p4xx_driverlib.lib : pcm.o (.text:PCM_shutdownDevice)
                  00009394    00000004     ti.targets.arm.rtsarm.aem4f : Error.oem4f (.text:xdc_runtime_Error_getSite__E)
                  00009398    00000050     sysbios.aem4f : BIOS.obj (.text:ti_sysbios_family_arm_m3_Hwi_Module_startup__E)
                  000093e8    00000050     ti.targets.arm.rtsarm.aem4f : Startup.oem4f (.text:xdc_runtime_Startup_exec__E)
                  00009438    00000050                                 : Text.oem4f (.text:xdc_runtime_Text_visitRope2__I)
                  00009488    0000004c     msp432p4xx_driverlib.lib : gpio.o (.text:GPIO_setAsPeripheralModuleFunctionOutputPin)
                  000094d4    0000004c     drivers_MSP432P401R.aem4f : UDMAMSP432.oem4f (.text:UDMAMSP432_open)
                  00009520    0000004c     rtsv7M4_T_le_v4SPD16_eabi.lib : fflush.c.obj (.text:__TI_doflush)
                  0000956c    0000004c                                   : cpy_tbl.c.obj (.text:copy_in)
                  000095b8    0000004c     sysbios.aem4f : BIOS.obj (.text:ti_sysbios_heaps_HeapMem_getStats__E)
                  00009604    00000004     ti.targets.arm.rtsarm.aem4f : SysStd.oem4f (.text:xdc_runtime_SysStd_putch__E)
                  00009608    0000004c     sysbios.aem4f : BIOS.obj (.text:ti_sysbios_knl_Swi_runLoop__I)
                  00009654    00000004     ti.targets.arm.rtsarm.aem4f : SysStd.oem4f (.text:xdc_runtime_SysStd_ready__E)
                  00009658    0000004c     sysbios.aem4f : BIOS.obj (.text:ti_sysbios_knl_Task_allBlockedFunction__I)
                  000096a4    0000004c     ti.uia.loggers.aem4f : LoggerStopMode.oem4f (.text:ti_uia_loggers_LoggerStopMode_Module_startup__E)
                  000096f0    0000004a     drivers_MSP432P401R.aem4f : SPIMSP432DMA.oem4f (.text:initHw)
                  0000973a    00000002     --HOLE-- [fill = 0]
                  0000973c    00000048     msp432p4xx_driverlib.lib : dma.o (.text:DMA_assignInterrupt)
                  00009784    00000048                              : gpio.o (.text:GPIO_setAsPeripheralModuleFunctionInputPin)
                  000097cc    00000048     rtsv7M4_T_le_v4SPD16_eabi.lib : exit.c.obj (.text:exit)
                  00009814    00000004     main_rtos_pem4f.oem4f (.text:xdc_runtime_System_Module_GateProxy_enter__E)
                  00009818    00000048     sysbios.aem4f : BIOS.obj (.text:ti_sysbios_family_arm_m3_Hwi_disableInterrupt__E)
                  00009860    00000048                   : BIOS.obj (.text:ti_sysbios_family_arm_m3_Hwi_enableInterrupt__E)
                  000098a8    00000048                   : BIOS.obj (.text:ti_sysbios_family_arm_m3_Hwi_excReserved__I)
                  000098f0    00000048                   : BIOS.obj (.text:ti_sysbios_family_arm_m3_Timer_initDevice__I)
                  00009938    00000046     drivers_MSP432P401R.aem4f : RingBuf.oem4f (.text:RingBuf_put)
                  0000997e    00000046                               : UARTMSP432.oem4f (.text:readIsrBinaryBlocking)
                  000099c4    00000046     ti.targets.arm.rtsarm.aem4f : Core-params.oem4f (.text:xdc_runtime_Core_assignParams__I)
                  00009a0a    00000002     --HOLE-- [fill = 0]
                  00009a0c    00000044     rtsv7M4_T_le_v4SPD16_eabi.lib : hostclose.c.obj (.text:HOSTclose)
                  00009a50    00000044                                   : hostunlink.c.obj (.text:HOSTunlink)
                  00009a94    00000044     drivers_MSP432P401R.aem4f : PowerMSP432.oem4f (.text:Power_init)
                  00009ad8    00000044     rtsv7M4_T_le_v4SPD16_eabi.lib : getdevice.c.obj (.text:getdevice)
                  00009b1c    00000044                                   : fd_tou_t2.asm.obj (.text)
                  00009b60    00000044     sysbios.aem4f : BIOS.obj (.text:ti_sysbios_family_arm_m3_Hwi_getStackInfo__E)
                  00009ba4    00000044     ti.uia.loggers.aem4f : LoggerStopMode.oem4f (.text:ti_uia_loggers_LoggerStopMode_initBuffer__I)
                  00009be8    00000044     ti.targets.arm.rtsarm.aem4f : Error.oem4f (.text:xdc_runtime_Error_setX__E)
                  00009c2c    00000044                                 : Text.oem4f (.text:xdc_runtime_Text_xprintf__I)
                  00009c70    00000042     drivers_MSP432P401R.aem4f : UARTMSP432.oem4f (.text:UARTMSP432_hwiIntFxn)
                  00009cb2    00000042                               : I2CMSP432.oem4f (.text:completeTransfer)
                  00009cf4    00000040     msp432p4xx_driverlib.lib : flash.o (.text:FlashCtl_disableReadBuffering)
                  00009d34    00000040                              : i2c.o (.text:I2C_masterSendMultiByteFinish)
                  00009d74    00000040     drivers_MSP432P401R.aem4f : RingBuf.oem4f (.text:RingBuf_get)
                  00009db4    00000040                               : UARTMSP432.oem4f (.text:UARTMSP432_read)
                  00009df4    00000040                               : UDMAMSP432.oem4f (.text:UDMAMSP432_init)
                  00009e34    00000040                               : PowerMSP432.oem4f (.text:notify)
                  00009e74    00000040     rtsv7M4_T_le_v4SPD16_eabi.lib : u_divt2.asm.obj (.text)
                  00009eb4    00000004     main_rtos_pem4f.oem4f (.text:xdc_runtime_System_Module_GateProxy_leave__E)
                  00009eb8    00000040     sysbios.aem4f : BIOS.obj (.text:ti_sysbios_family_arm_m3_Timer_Module_startup__E)
                  00009ef8    0000003e     msp432p4xx_driverlib.lib : i2c.o (.text:I2C_initMaster)
                  00009f36    00000002     --HOLE-- [fill = 0]
                  00009f38    0000003c                              : dma.o (.text:DMA_enableInterrupt)
                  00009f74    0000003c     power_tirtos_MSP432P401R.aem4f : PowerMSP432_tirtos.oem4f (.text:PowerMSP432_sleepPolicy)
                  00009fb0    0000003c     sysbios.aem4f : BIOS.obj (.text:ti_sysbios_family_arm_m3_Hwi_excSvCall__I)
                  00009fec    00000004     ti.targets.arm.rtsarm.aem4f : System.oem4f (.text:xdc_runtime_System_aprintf_va__F)
                  00009ff0    0000003c     sysbios.aem4f : BIOS.obj (.text:ti_sysbios_heaps_HeapMem_init__I)
                  0000a02c    00000004     ti.targets.arm.rtsarm.aem4f : System.oem4f (.text:xdc_runtime_System_printf_va__F)
                  0000a030    0000003c     sysbios.aem4f : BIOS.obj (.text:ti_sysbios_knl_Swi_restore__E)
                  0000a06c    00000004     --HOLE-- [fill = 0]
                  0000a070    0000003c                   : BIOS.obj (.text:ti_sysbios_knl_Swi_startup__E)
                  0000a0ac    0000003a     drivers_MSP432P401R.aem4f : SPIMSP432DMA.oem4f (.text:SPIMSP432DMA_hwiFxn)
                  0000a0e6    0000003a                               : UARTMSP432.oem4f (.text:readIsrBinaryCallback)
                  0000a120    00000038     ADS1292R.obj (.text:ADS_write_register_configs)
                  0000a158    00000038     AFE4403.obj (.text:AFE4403_write_register_configs)
                  0000a190    00000038     drivers_MSP432P401R.aem4f : I2C.oem4f (.text:I2C_init)
                  0000a1c8    00000038                               : SPI.oem4f (.text:SPI_init)
                  0000a200    00000038                               : UART.oem4f (.text:UART_init)
                  0000a238    00000038     rtsv7M4_T_le_v4SPD16_eabi.lib : trgmsg.c.obj (.text:__TI_writemsg)
                  0000a270    00000038     drivers_MSP432P401R.aem4f : I2CMSP432.oem4f (.text:perfChangeNotifyFxn)
                  0000a2a8    00000038     sysbios.aem4f : BIOS.obj (.text:ti_sysbios_family_arm_m3_Hwi_excNoIsr__I)
                  0000a2e0    00000038     ti.targets.arm.rtsarm.aem4f : System.oem4f (.text:xdc_runtime_System_atexit__E)
                  0000a318    00000036     drivers_MSP432P401R.aem4f : UARTMSP432.oem4f (.text:UARTMSP432_readCancel)
                  0000a34e    00000036                               : UARTMSP432.oem4f (.text:perfChangeNotifyFxn)
                  0000a384    00000036     rtsv7M4_T_le_v4SPD16_eabi.lib : strncpy.c.obj (.text:strncpy)
                  0000a3ba    00000034     ADS1292R.obj (.text:ADS_config_GPIO)
                  0000a3ee    00000002     --HOLE-- [fill = 0]
                  0000a3f0    00000034     msp432p4xx_driverlib.lib : flash.o (.text:FlashCtl_enableReadBuffering)
                  0000a424    00000034     rtsv7M4_T_le_v4SPD16_eabi.lib : fopen.c.obj (.text:__TI_cleanup)
                  0000a458    00000034                                   : trgmsg.c.obj (.text:__TI_readmsg)
                  0000a48c    00000034     main_rtos_pem4f.oem4f (.text:ti_sysbios_BIOS_startFunc__I)
                  0000a4c0    00000034     sysbios.aem4f : BIOS.obj (.text:ti_sysbios_family_arm_m3_Hwi_Instance_finalize__E)
                  0000a4f4    00000004     --HOLE-- [fill = 0]
                  0000a4f8    00000034                   : BIOS.obj (.text:ti_sysbios_family_arm_m3_Hwi_excNmi__I)
                  0000a52c    00000004     --HOLE-- [fill = 0]
                  0000a530    00000034                   : BIOS.obj (.text:ti_sysbios_family_arm_m3_Timer_periodicStub__I)
                  0000a564    00000004     --HOLE-- [fill = 0]
                  0000a568    00000034                   : BIOS.obj (.text:ti_sysbios_hal_Hwi_checkStack)
                  0000a59c    00000034     main_rtos_pem4f.oem4f (.text:ti_sysbios_knl_Clock_construct)
                  0000a5d0    00000034     ti.uia.loggers.aem4f : LoggerStopMode.oem4f (.text:ti_uia_loggers_LoggerStopMode_reset__E)
                  0000a604    00000034     ti.targets.arm.rtsarm.aem4f : Core-label.oem4f (.text:xdc_runtime_Core_assignLabel__I)
                  0000a638    00000033                                 : Text.oem4f (.text:xdc_runtime_Text_printVisFxn__I)
                  0000a66b    00000001     --HOLE-- [fill = 0]
                  0000a66c    00000032     msp432p4xx_driverlib.lib : spi.o (.text:SPI_initSlave)
                  0000a69e    00000002     --HOLE-- [fill = 0]
                  0000a6a0    00000032     sysbios.aem4f : BIOS.obj (.text:ti_sysbios_hal_Hwi_initStack)
                  0000a6d2    00000006     drivers_MSP432P401R.aem4f : I2CMSP432.oem4f (.text:I2CMSP432_control)
                  0000a6d8    00000032     sysbios.aem4f : BIOS.obj (.text:ti_sysbios_knl_Semaphore_pendTimeout__I)
                  0000a70a    00000030     ADS1292R.obj (.text:ADS_disable_start)
                  0000a73a    00000030     ADS1292R.obj (.text:ADS_enable_start)
                  0000a76a    00000002     --HOLE-- [fill = 0]
                  0000a76c    00000030     msp432p4xx_driverlib.lib : gpio.o (.text:GPIO_getEnabledInterruptStatus)
                  0000a79c    00000030                              : gpio.o (.text:GPIO_setAsInputPinWithPullDownResistor)
                  0000a7cc    00000030                              : gpio.o (.text:GPIO_setAsInputPinWithPullUpResistor)
                  0000a7fc    00000030     drivers_MSP432P401R.aem4f : I2C.oem4f (.text:I2C_open)
                  0000a82c    00000030                               : SPI.oem4f (.text:SPI_open)
                  0000a85c    00000030                               : UART.oem4f (.text:UART_open)
                  0000a88c    00000030     rtsv7M4_T_le_v4SPD16_eabi.lib : getdevice.c.obj (.text:finddevice)
                  0000a8bc    00000030     msp432p4xx_driverlib.lib : spi.o (.text:is_A_Module)
                  0000a8ec    00000030     main_rtos_pem4f.oem4f (.text:ti_sysbios_BIOS_atExitFunc__I)
                  0000a91c    00000004     --HOLE-- [fill = 0]
                  0000a920    00000030     sysbios.aem4f : BIOS.obj (.text:ti_sysbios_family_arm_m3_TaskSupport_start__E)
                  0000a950    00000030     main_rtos_pem4f.oem4f (.text:ti_sysbios_gates_GateHwi_Object__create__S)
                  0000a980    00000030     main_rtos_pem4f.oem4f (.text:ti_sysbios_gates_GateMutex_Object__create__S)
                  0000a9b0    00000030     main_rtos_pem4f.oem4f (.text:ti_sysbios_heaps_HeapMem_Object__create__S)
                  0000a9e0    00000030     main_rtos_pem4f.oem4f (.text:ti_sysbios_knl_Semaphore_construct)
                  0000aa10    00000030     sysbios.aem4f : BIOS.obj (.text:ti_sysbios_utils_Load_updateCurrentThreadTime__E)
                  0000aa40    00000030     main_rtos_pem4f.oem4f (.text:ti_uia_loggers_LoggerStopMode_Object__create__S)
                  0000aa70    00000030     ti.targets.arm.rtsarm.aem4f : System.oem4f (.text:xdc_runtime_System_processAtExit__E)
                  0000aaa0    0000002e     main_rtos_pem4f.oem4f (.text:malloc)
                  0000aace    0000002e     rtsv7M4_T_le_v4SPD16_eabi.lib : i_tofd_t2.asm.obj (.text)
                  0000aafc    0000002c     ADS1292R.obj (.text:ADS_register_read)
                  0000ab28    0000002c     msp432p4xx_driverlib.lib : gpio.o (.text:GPIO_setAsInputPin)
                  0000ab54    0000002c                              : pcm.o (.text:PCM_getCoreVoltageLevel)
                  0000ab80    0000002c     power_tirtos_MSP432P401R.aem4f : PowerMSP432_tirtos.oem4f (.text:PowerMSP432_updateFreqs)
                  0000abac    0000002c     drivers_MSP432P401R.aem4f : PowerMSP432.oem4f (.text:Power_releaseConstraint)
                  0000abd8    0000002c                               : PowerMSP432.oem4f (.text:Power_setConstraint)
                  0000ac04    0000002c     main.obj (.text:main)
                  0000ac30    0000002c     main_rtos_pem4f.oem4f (.text:ti_sysbios_knl_Clock_doTick__I)
                  0000ac5c    0000002c     main_rtos_pem4f.oem4f (.text:ti_sysbios_knl_Queue_construct)
                  0000ac88    0000002c     sysbios.aem4f : BIOS.obj (.text:ti_sysbios_knl_Task_restore__E)
                  0000acb4    0000002c     rtsv7M4_T_le_v4SPD16_eabi.lib : unlink.c.obj (.text:unlink)
                  0000ace0    0000002c     ti.targets.arm.rtsarm.aem4f : Text.oem4f (.text:xdc_runtime_Text_cordText__E)
                  0000ad0c    0000002a     msp432p4xx_driverlib.lib : pcm.o (.text:PCM_getPowerMode)
                  0000ad36    0000002a     drivers_MSP432P401R.aem4f : UARTMSP432.oem4f (.text:findBaudDividerIndex)
                  0000ad60    0000002a                               : SPIMSP432DMA.oem4f (.text:perfChangeNotifyFxn)
                  0000ad8a    0000002a     ti.targets.arm.rtsarm.aem4f : System.oem4f (.text:xdc_runtime_System_putchar__I)
                  0000adb4    00000028     msp432p4xx_driverlib.lib : flash.o (.text:FlashCtl_setWaitState)
                  0000addc    00000028     drivers_MSP432P401R.aem4f : GPIOMSP432.oem4f (.text:GPIO_enableInt)
                  0000ae04    00000028     main.obj (.text:GUI_init_task)
                  0000ae2c    00000028     msp432p4xx_driverlib.lib : pcm.o (.text:PCM_gotoLPM0)
                  0000ae54    00000028     rtsv7M4_T_le_v4SPD16_eabi.lib : lseek.c.obj (.text:lseek)
                  0000ae7c    00000004     --HOLE-- [fill = 0]
                  0000ae80    00000028     sysbios.aem4f : BIOS.obj (.text:ti_sysbios_knl_Swi_Module_startup__E)
                  0000aea8    00000028     rtsv7M4_T_le_v4SPD16_eabi.lib : write.c.obj (.text:write)
                  0000aed0    00000026     drivers_MSP432P401R.aem4f : List.oem4f (.text:List_put)
                  0000aef6    00000026     sysbios.aem4f : m3_Hwi_asm.obj (.text:ti_sysbios_family_arm_m3_Hwi_pendSV__I)
                  0000af1c    00000026     ti.targets.arm.rtsarm.aem4f : System.oem4f (.text:xdc_runtime_System_avprintf__E)
                  0000af42    00000002     --HOLE-- [fill = 0]
                  0000af44    00000024     msp432p4xx_driverlib.lib : cs.o (.text:CS_setDCOCenteredFrequency)
                  0000af68    00000024                              : dma.o (.text:DMA_setChannelControl)
                  0000af8c    00000024                              : gpio.o (.text:GPIO_setAsOutputPin)
                  0000afb0    00000024                              : i2c.o (.text:I2C_masterSendMultiByteNext)
                  0000afd4    00000024     MSP432_UART.obj (.text:MSP_UART_write)
                  0000aff8    00000024     msp432p4xx_driverlib.lib : rtc_c.o (.text:RTC_C_holdClock)
                  0000b01c    00000024                              : rtc_c.o (.text:RTC_C_startClock)
                  0000b040    00000024                              : uart.o (.text:UART_disableInterrupt)
                  0000b064    00000024                              : uart.o (.text:UART_receiveData)
                  0000b088    00000024                              : uart.o (.text:UART_transmitData)
                  0000b0ac    00000024     main_rtos_pem4f.oem4f (.text:ti_sysbios_BIOS_errorRaiseHook__I)
                  0000b0d0    00000024     main_rtos_pem4f.oem4f (.text:ti_sysbios_BIOS_registerRTSLock__I)
                  0000b0f4    00000024     main_rtos_pem4f.oem4f (.text:ti_sysbios_BIOS_removeRTSLock__I)
                  0000b118    00000024     sysbios.aem4f : BIOS.obj (.text:ti_sysbios_family_arm_m3_Hwi_doTaskRestore__I)
                  0000b13c    00000004     --HOLE-- [fill = 0]
                  0000b140    00000024                   : BIOS.obj (.text:ti_sysbios_family_arm_m3_Timer_startup__E)
                  0000b164    00000004     --HOLE-- [fill = 0]
                  0000b168    00000024                   : BIOS.obj (.text:ti_sysbios_family_arm_msp432_ClockFreqs_setFrequency__E)
                  0000b18c    00000024     main_rtos_pem4f.oem4f (.text:ti_sysbios_gates_GateMutex_Object__delete__S)
                  0000b1b0    00000024     sysbios.aem4f : BIOS.obj (.text:ti_sysbios_knl_Clock_Module_startup__E)
                  0000b1d4    00000024     ti.targets.arm.rtsarm.aem4f : System.oem4f (.text:xdc_runtime_System_vprintf__E)
                  0000b1f8    00000022     ADS1292R.obj (.text:ADS_clock_selection)
                  0000b21a    00000002     --HOLE-- [fill = 0]
                  0000b21c    00000020     msp432p4xx_driverlib.lib : gpio.o (.text:GPIO_interruptEdgeSelect)
                  0000b23c    00000020     drivers_MSP432P401R.aem4f : PowerMSP432.oem4f (.text:PowerMSP432_getFreqs)
                  0000b25c    00000020                               : PowerMSP432.oem4f (.text:Power_unregisterNotify)
                  0000b27c    00000020                               : RingBuf.oem4f (.text:RingBuf_peek)
                  0000b29c    00000020     TMP116.obj (.text:TMP_reg_read_temp)
                  0000b2bc    00000020     TMP116.obj (.text:TMP_reg_write)
                  0000b2dc    00000020     drivers_MSP432P401R.aem4f : UDMAMSP432.oem4f (.text:UDMAMSP432_close)
                  0000b2fc    00000020     main_rtos_pem4f.oem4f (.text:ti_sysbios_BIOS_rtsLock__I)
                  0000b31c    00000020     sysbios.aem4f : m3_Hwi_asm.obj (.text:ti_sysbios_family_arm_m3_Hwi_excHandlerAsm__I)
                  0000b33c    00000004     --HOLE-- [fill = 0]
                  0000b340    00000020                   : BIOS.obj (.text:ti_sysbios_family_arm_m3_Hwi_excHandler__I)
                  0000b360    00000020                   : BIOS.obj (.text:ti_sysbios_family_arm_m3_TimestampProvider_Module_startup__E)
                  0000b380    00000020     main_rtos_pem4f.oem4f (.text:ti_sysbios_gates_GateHwi_Object__delete__S)
                  0000b3a0    00000020     main_rtos_pem4f.oem4f (.text:ti_sysbios_heaps_HeapMem_Object__delete__S)
                  0000b3c0    00000020     main_rtos_pem4f.oem4f (.text:ti_sysbios_knl_Clock_Object__destruct__S)
                  0000b3e0    00000020     sysbios.aem4f : BIOS.obj (.text:ti_sysbios_knl_Idle_run__E)
                  0000b400    00000020     main_rtos_pem4f.oem4f (.text:ti_sysbios_knl_Semaphore_Object__destruct__S)
                  0000b420    00000020     main_rtos_pem4f.oem4f (.text:ti_uia_loggers_LoggerStopMode_Object__delete__S)
                  0000b440    00000020     ti.targets.arm.rtsarm.aem4f : Registry.oem4f (.text:xdc_runtime_Registry_findById__E)
                  0000b460    00000020                                 : SysStd.oem4f (.text:xdc_runtime_SysStd_abort__E)
                  0000b480    0000001e     sysbios.aem4f : m3_Hwi_asm_switch.obj (.text:ti_sysbios_family_xxx_Hwi_switchAndRunFunc)
                  0000b49e    0000001c     AFE4403.obj (.text:AFE4403_reg_write)
                  0000b4ba    0000001c     MSP_EXP432P401R.obj (.text:MSP_EXP432P401R_initSPI)
                  0000b4d6    00000002     --HOLE-- [fill = 0]
                  0000b4d8    0000001c     msp432p4xx_driverlib.lib : pcm.o (.text:PCM_enableRudeMode)
                  0000b4f4    0000001c     Pace_detect.obj (.text:Pace_detect_goes_high)
                  0000b510    0000001c     drivers_MSP432P401R.aem4f : PowerMSP432.oem4f (.text:Power_registerNotify)
                  0000b52c    0000001c     main_rtos_pem4f.oem4f (.text:ti_sysbios_family_arm_m3_Hwi_Object__destruct__S)
                  0000b548    0000001c     sysbios.aem4f : BIOS.obj (.text:ti_sysbios_gates_GateMutex_Instance_init__E)
                  0000b564    0000001c     main_rtos_pem4f.oem4f (.text:ti_sysbios_knl_Queue_Object__destruct__S)
                  0000b580    0000001c     sysbios.aem4f : BIOS.obj (.text:ti_sysbios_knl_Task_enter__I)
                  0000b59c    0000001c     ti.uia.loggers.aem4f : LoggerStopMode.oem4f (.text:ti_uia_loggers_LoggerStopMode_Instance_init__E)
                  0000b5b8    0000001c     ti.targets.arm.rtsarm.aem4f : Error.oem4f (.text:xdc_runtime_Error_raiseX__E)
                  0000b5d4    0000001c                                 : Memory.oem4f (.text:xdc_runtime_Memory_valloc__E)
                  0000b5f0    0000001c                                 : System.oem4f (.text:xdc_runtime_System_abort__E)
                  0000b60c    0000001a     drivers_MSP432P401R.aem4f : List.oem4f (.text:List_remove)
                  0000b626    0000001a     Pace_detect.obj (.text:Pacedetect_ADC_reg_write)
                  0000b640    0000001a     Pace_detect.obj (.text:Pacedetect_DAC_reg_write)
                  0000b65a    0000001a     msp432p4xx_driverlib.lib : spi.o (.text:SPI_disableModule)
                  0000b674    0000001a                              : spi.o (.text:SPI_enableModule)
                  0000b68e    0000001a                              : spi.o (.text:SPI_getReceiveBufferAddressForDMA)
                  0000b6a8    0000001a                              : spi.o (.text:SPI_getTransmitBufferAddressForDMA)
                  0000b6c2    0000001a     main_rtos_pem4f.oem4f (.text:ti_sysbios_family_arm_m3_Hwi_Handle__label__S)
                  0000b6dc    0000001a     main_rtos_pem4f.oem4f (.text:ti_sysbios_gates_GateHwi_Handle__label__S)
                  0000b6f6    0000001a     main_rtos_pem4f.oem4f (.text:ti_sysbios_gates_GateMutex_Handle__label__S)
                  0000b710    0000001a     main_rtos_pem4f.oem4f (.text:ti_sysbios_heaps_HeapMem_Handle__label__S)
                  0000b72a    0000001a     main_rtos_pem4f.oem4f (.text:ti_sysbios_knl_Swi_Handle__label__S)
                  0000b744    0000001a     main_rtos_pem4f.oem4f (.text:ti_sysbios_knl_Task_Handle__label__S)
                  0000b75e    00000002     --HOLE-- [fill = 0]
                  0000b760    0000001a     sysbios.aem4f : BIOS.obj (.text:ti_sysbios_knl_Task_sleepTimeout__I)
                  0000b77a    0000001a     main_rtos_pem4f.oem4f (.text:ti_uia_loggers_LoggerStopMode_Handle__label__S)
                  0000b794    0000001a     main_rtos_pem4f.oem4f (.text:xdc_runtime_System_aprintf__E)
                  0000b7ae    0000001a     main_rtos_pem4f.oem4f (.text:xdc_runtime_System_printf__E)
                  0000b7c8    00000018     ADS1292R.obj (.text:ADS_disable_Respiration)
                  0000b7e0    00000018     ADS1292R.obj (.text:ADS_enable_Respiration)
                  0000b7f8    00000018     ADS1292R.obj (.text:ADS_register_write)
                  0000b810    00000018     msp432p4xx_driverlib.lib : dma.o (.text:DMA_clearInterruptFlag)
                  0000b828    00000018                              : dma.o (.text:DMA_enableChannel)
                  0000b840    00000018                              : dma.o (.text:DMA_isChannelEnabled)
                  0000b858    00000018                              : gpio.o (.text:GPIO_clearInterruptFlag)
                  0000b870    00000018                              : gpio.o (.text:GPIO_setDriveStrengthLow)
                  0000b888    00000018                              : gpio.o (.text:GPIO_setOutputLowOnPin)
                  0000b8a0    00000018                              : i2c.o (.text:I2C_masterIsStartSent)
                  0000b8b8    00000018     MSP432_GPIO.obj (.text:MSP_ADS_DRDY_Config)
                  0000b8d0    00000018     MSP432_GPIO.obj (.text:MSP_AFE_ADC_RDY_Config)
                  0000b8e8    00000018     MSP432_GPIO.obj (.text:MSP_pace_detect_config)
                  0000b900    00000018     drivers_MSP432P401R.aem4f : SPIMSP432DMA.oem4f (.text:SPIMSP432DMA_transferCancel)
                  0000b918    00000018                               : UART.oem4f (.text:UART_Params_init)
                  0000b930    00000018     msp432p4xx_driverlib.lib : wdt_a.o (.text:WDT_A_holdTimer)
                  0000b948    00000018     rtsv7M4_T_le_v4SPD16_eabi.lib : args_main.c.obj (.text:_args_main)
                  0000b960    00000018     main_rtos_pem4f.oem4f (.text:free)
                  0000b978    00000018     rtsv7M4_T_le_v4SPD16_eabi.lib : strcmp.c.obj (.text:strcmp)
                  0000b990    00000018     main_rtos_pem4f.oem4f (.text:ti_sysbios_BIOS_rtsUnlock__I)
                  0000b9a8    00000018     main_rtos_pem4f.oem4f (.text:ti_sysbios_family_arm_m3_Hwi_Module__startupDone__F)
                  0000b9c0    00000018     sysbios.aem4f : m3_TaskSupport_asm.obj (.text:ti_sysbios_family_arm_m3_TaskSupport_swap__E)
                  0000b9d8    00000018     main_rtos_pem4f.oem4f (.text:ti_sysbios_family_arm_msp432_Timer_Module__startupDone__F)
                  0000b9f0    00000018     sysbios.aem4f : BIOS.obj (.text:ti_sysbios_gates_GateMutex_leave__E)
                  0000ba08    00000018     ti.targets.arm.rtsarm.aem4f : Error.oem4f (.text:xdc_runtime_Error_check__E)
                  0000ba20    00000018                                 : System.oem4f (.text:xdc_runtime_System_exit__E)
                  0000ba38    00000018                                 : Text.oem4f (.text:xdc_runtime_Text_ropeText__E)
                  0000ba50    00000016     tirtosport.aem4f : ClockP_tirtos.oem4f (.text:ClockP_delete)
                  0000ba66    00000016                      : HwiP_tirtos.oem4f (.text:HwiP_delete)
                  0000ba7c    00000016                      : SemaphoreP_tirtos.oem4f (.text:SemaphoreP_delete)
                  0000ba92    00000016     msp432p4xx_driverlib.lib : uart.o (.text:UART_enableInterrupt)
                  0000baa8    00000016     rtsv7M4_T_le_v4SPD16_eabi.lib : strchr.c.obj (.text:strchr)
                  0000babe    00000016     main_rtos_pem4f.oem4f (.text:ti_sysbios_BIOS_exitFunc__I)
                  0000bad4    00000016     ti.uia.loggers.aem4f : LoggerStopMode.oem4f (.text:ti_uia_loggers_LoggerStopMode_disable__E)
                  0000baea    00000016                          : LoggerStopMode.oem4f (.text:ti_uia_loggers_LoggerStopMode_enable__E)
                  0000bb00    00000014     msp432p4xx_driverlib.lib : gpio.o (.text:GPIO_enableInterrupt)
                  0000bb14    00000014                              : gpio.o (.text:GPIO_setDriveStrengthHigh)
                  0000bb28    00000014                              : gpio.o (.text:GPIO_setOutputHighOnPin)
                  0000bb3c    00000014     drivers_MSP432P401R.aem4f : PowerMSP432.oem4f (.text:Power_idleFunc)
                  0000bb50    00000014                               : SPI.oem4f (.text:SPI_Params_init)
                  0000bb64    00000014     msp432p4xx_driverlib.lib : wdt_a.o (.text:WDT_A_startTimer)
                  0000bb78    00000014     rtsv7M4_T_le_v4SPD16_eabi.lib : s_copysign.c.obj (.text:copysign)
                  0000bb8c    00000014                                   : strcpy.c.obj (.text:strcpy)
                  0000bba0    00000014                                   : strlen.c.obj (.text:strlen)
                  0000bbb4    00000014     main_rtos_pem4f.oem4f (.text:ti_sysbios_family_arm_m3_Hwi_Object__get__S)
                  0000bbc8    00000014     sysbios.aem4f : BIOS.obj (.text:ti_sysbios_family_arm_m3_Hwi_switchFromBootStack__E)
                  0000bbdc    00000014     main_rtos_pem4f.oem4f (.text:ti_sysbios_heaps_HeapMem_Object__get__S)
                  0000bbf0    00000014     main_rtos_pem4f.oem4f (.text:ti_sysbios_knl_Swi_Object__get__S)
                  0000bc04    00000012     tirtosport.aem4f : ClockP_tirtos.oem4f (.text:ClockP_start)
                  0000bc16    00000012     MSP_EXP432P401R.obj (.text:MSP_EXP432P401R_initI2C)
                  0000bc28    00000012     MSP_EXP432P401R.obj (.text:MSP_EXP432P401R_initUART)
                  0000bc3a    00000012     drivers_MSP432P401R.aem4f : RingBuf.oem4f (.text:RingBuf_construct)
                  0000bc4c    00000012     tirtosport.aem4f : SemaphoreP_tirtos.oem4f (.text:SemaphoreP_pend)
                  0000bc5e    00000002     --HOLE-- [fill = 0]
                  0000bc60    00000012     sysbios.aem4f : BIOS.obj (.text:ti_sysbios_hal_Hwi_Module_startup__E)
                  0000bc72    00000012     main_rtos_pem4f.oem4f (.text:xdc_runtime_Startup_exec__I)
                  0000bc84    00000010     ADS1292R.obj (.text:ADS_DRDY_goes_low)
                  0000bc94    00000010     ADS1292R.obj (.text:ADS_write_command)
                  0000bca4    00000010     AFE4403.obj (.text:AFE_ADC_RDY_goes_low)
                  0000bcb4    00000010     TMP116.obj (.text:CLOCK_TMP_read_temperature)
                  0000bcc4    00000010     msp432p4xx_driverlib.lib : dma.o (.text:DMA_clearErrorStatus)
                  0000bcd4    00000010                              : dma.o (.text:DMA_enableModule)
                  0000bce4    00000010                              : gpio.o (.text:GPIO_getInterruptStatus)
                  0000bcf4    00000010     drivers_MSP432P401R.aem4f : I2C.oem4f (.text:I2C_Params_init)
                  0000bd04    00000010     msp432p4xx_driverlib.lib : i2c.o (.text:I2C_masterReceiveMultiByteStop)
                  0000bd14    00000010                              : i2c.o (.text:I2C_masterReceiveStart)
                  0000bd24    00000010                              : i2c.o (.text:I2C_masterSendStart)
                  0000bd34    00000010                              : pcm.o (.text:PCM_gotoLPM4)
                  0000bd44    00000010     MSP_EXP432P401R.obj (.text:dmaErrorHwi)
                  0000bd54    00000010     drivers_MSP432P401R.aem4f : UARTMSP432.oem4f (.text:readBlockingTimeout)
                  0000bd64    00000004     --HOLE-- [fill = 0]
                  0000bd68    00000010     sysbios.aem4f : BIOS.obj (.text:ti_sysbios_BIOS_getCpuFreq__E)
                  0000bd78    00000010                   : BIOS.obj (.text:ti_sysbios_BIOS_setCpuFreq__E)
                  0000bd88    00000010                   : BIOS.obj (.text:ti_sysbios_BIOS_setThreadType__E)
                  0000bd98    00000010                   : BIOS.obj (.text:ti_sysbios_BIOS_start__E)
                  0000bda8    00000010                   : m3_TaskSupport_asm.obj (.text:ti_sysbios_family_arm_m3_TaskSupport_glue)
                  0000bdb8    00000010                   : BIOS.obj (.text:ti_sysbios_family_arm_msp432_init_Boot_disableWatchdog)
                  0000bdc8    00000010                   : BIOS.obj (.text:ti_sysbios_gates_GateMutex_Instance_finalize__E)
                  0000bdd8    00000010                   : BIOS.obj (.text:ti_sysbios_knl_Semaphore_Instance_finalize__E)
                  0000bde8    00000010                   : BIOS.obj (.text:ti_sysbios_knl_Swi_disable__E)
                  0000bdf8    00000010     main_rtos_pem4f.oem4f (.text:ti_sysbios_knl_Task_Object__get__S)
                  0000be08    00000010     sysbios.aem4f : BIOS.obj (.text:ti_sysbios_knl_Task_disable__E)
                  0000be18    00000010     main_rtos_pem4f.oem4f (.text:ti_uia_loggers_LoggerStopMode_Object__get__S)
                  0000be28    00000010     ti.uia.loggers.aem4f : LoggerStopMode.oem4f (.text:ti_uia_loggers_LoggerStopMode_isEmpty__E)
                  0000be38    00000010     ti.targets.arm.rtsarm.aem4f : Gate.oem4f (.text:xdc_runtime_Gate_leaveSystem__E)
                  0000be48    00000010                                 : Memory.oem4f (.text:xdc_runtime_Memory_free__E)
                  0000be58    00000010                                 : System.oem4f (.text:xdc_runtime_System_vsnprintf__E)
                  0000be68    00000010     main_rtos_pem4f.oem4f (.text:xdc_runtime_Text_visitRope__I)
                  0000be78    0000000e     tirtosport.aem4f : HwiP_tirtos.oem4f (.text:HwiP_Params_init)
                  0000be86    0000000e     msp432p4xx_driverlib.lib : i2c.o (.text:I2C_clearInterruptFlag)
                  0000be94    0000000e                              : i2c.o (.text:I2C_disableInterrupt)
                  0000bea2    0000000e                              : i2c.o (.text:I2C_setMode)
                  0000beb0    0000000e     MSP432_UART.obj (.text:UARTWriteCallback)
                  0000bebe    0000000e     msp432p4xx_driverlib.lib : uart.o (.text:UART_clearInterruptFlag)
                  0000becc    0000000e     rtsv7M4_T_le_v4SPD16_eabi.lib : copy_decompress_none.c.obj (.text:decompress:none:__TI_decompress_none)
                  0000beda    00000006     msp432p4xx_driverlib.lib : i2c.o (.text:I2C_getEnabledInterruptStatus)
                  0000bee0    0000000e     sysbios.aem4f : BIOS.obj (.text:ti_sysbios_knl_Idle_loop__E)
                  0000beee    00000002     --HOLE-- [fill = 0]
                  0000bef0    0000000e                   : BIOS.obj (.text:ti_sysbios_knl_Queue_empty__E)
                  0000befe    0000000c     main_rtos_pem4f.oem4f (.text:.bootCodeSection:ti_sysbios_family_arm_msp432_init_Boot_init__I)
                  0000bf0a    0000000c     ADS1292R.obj (.text:ADS_CS_high)
                  0000bf16    0000000c     ADS1292R.obj (.text:ADS_CS_low)
                  0000bf22    0000000c     ADS1292R.obj (.text:ADS_reset_high)
                  0000bf2e    0000000c     ADS1292R.obj (.text:ADS_reset_low)
                  0000bf3a    0000000c     ADS1292R.obj (.text:ADS_start_high)
                  0000bf46    0000000c     ADS1292R.obj (.text:ADS_start_low)
                  0000bf52    0000000c     AFE4403.obj (.text:AFE4403_disable_read)
                  0000bf5e    0000000c     AFE4403.obj (.text:AFE4403_enable_read)
                  0000bf6a    0000000c     AFE4403.obj (.text:AFE_CS_high)
                  0000bf76    0000000c     AFE4403.obj (.text:AFE_CS_low)
                  0000bf82    0000000c     msp432p4xx_driverlib.lib : cpu.o (.text:CPU_cpsid)
                  0000bf8e    0000000c                              : cpu.o (.text:CPU_cpsie)
                  0000bf9a    00000002     --HOLE-- [fill = 0]
                  0000bf9c    0000000c                              : dma.o (.text:DMA_getErrorStatus)
                  0000bfa8    0000000c                              : dma.o (.text:DMA_setControlBase)
                  0000bfb4    0000000c                              : spi.o (.text:EUSCI_A_SPI_disable)
                  0000bfc0    0000000c                              : spi.o (.text:EUSCI_A_SPI_enable)
                  0000bfcc    0000000c                              : spi.o (.text:EUSCI_B_SPI_disable)
                  0000bfd8    0000000c                              : spi.o (.text:EUSCI_B_SPI_enable)
                  0000bfe4    0000000c                              : i2c.o (.text:I2C_disableModule)
                  0000bff0    0000000c                              : i2c.o (.text:I2C_enableModule)
                  0000bffc    0000000c                              : pcm.o (.text:PCM_getPowerState)
                  0000c008    0000000c     drivers_MSP432P401R.aem4f : PowerMSP432.oem4f (.text:Power_getConstraintMask)
                  0000c014    0000000c                               : PowerMSP432.oem4f (.text:Power_getPerformanceLevel)
                  0000c020    0000000c                               : UARTMSP432.oem4f (.text:UARTMSP432_init)
                  0000c02c    0000000c     msp432p4xx_driverlib.lib : uart.o (.text:UART_disableModule)
                  0000c038    0000000c                              : uart.o (.text:UART_enableModule)
                  0000c044    0000000c     rtsv7M4_T_le_v4SPD16_eabi.lib : _lock.c.obj (.text:_register_lock)
                  0000c050    0000000c                                   : _lock.c.obj (.text:_register_unlock)
                  0000c05c    0000000c     Pace_detect.obj (.text:clock_pacedetectEnd)
                  0000c068    0000000c     Pace_detect.obj (.text:clock_pacedetectStart)
                  0000c074    0000000c     rtsv7M4_T_le_v4SPD16_eabi.lib : copy_zero_init.c.obj (.text:decompress:ZI:__TI_zero_init)
                  0000c080    0000000c                                   : fputc.c.obj (.text:putchar)
                  0000c08c    0000000c     main_rtos_pem4f.oem4f (.text:ti_sysbios_family_arm_m3_Hwi_Params__init__S)
                  0000c098    0000000c     sysbios.aem4f : BIOS.obj (.text:ti_sysbios_family_arm_m3_Hwi_disableFxn__E)
                  0000c0a4    00000004     --HOLE-- [fill = 0]
                  0000c0a8    0000000c                   : BIOS.obj (.text:ti_sysbios_family_arm_m3_TaskSupport_checkStack__E)
                  0000c0b4    00000004     --HOLE-- [fill = 0]
                  0000c0b8    0000000c                   : BIOS.obj (.text:ti_sysbios_family_arm_m3_TimestampProvider_startTimer__E)
                  0000c0c4    00000004     --HOLE-- [fill = 0]
                  0000c0c8    0000000c                   : BIOS.obj (.text:ti_sysbios_family_arm_msp432_Timer_getMaxTicks__E)
                  0000c0d4    00000004     --HOLE-- [fill = 0]
                  0000c0d8    0000000c                   : BIOS.obj (.text:ti_sysbios_gates_GateHwi_enter__E)
                  0000c0e4    0000000c     main_rtos_pem4f.oem4f (.text:ti_sysbios_knl_Clock_Params__init__S)
                  0000c0f0    0000000c     main_rtos_pem4f.oem4f (.text:ti_sysbios_knl_Queue_Object__get__S)
                  0000c0fc    0000000c     main_rtos_pem4f.oem4f (.text:ti_sysbios_knl_Semaphore_Params__init__S)
                  0000c108    0000000c     ti.targets.arm.rtsarm.aem4f : Error.oem4f (.text:xdc_runtime_Error_init__E)
                  0000c114    0000000c                                 : Gate.oem4f (.text:xdc_runtime_Gate_enterSystem__E)
                  0000c120    0000000c                                 : Memory.oem4f (.text:xdc_runtime_Memory_calloc__E)
                  0000c12c    0000000c                                 : Memory.oem4f (.text:xdc_runtime_Memory_getMaxDefaultTypeAlign__E)
                  0000c138    0000000c                                 : Startup.oem4f (.text:xdc_runtime_Startup_rtsDone__E)
                  0000c144    0000000c                                 : SysStd.oem4f (.text:xdc_runtime_SysStd_exit__E)
                  0000c150    0000000a     ADS1292R.obj (.text:ADS_soft_stop)
                  0000c15a    0000000a     ADS1292R.obj (.text:ADS_start_conv_command)
                  0000c164    0000000a     ADS1292R.obj (.text:ADS_stop_read_continuous)
                  0000c16e    0000000a     tirtosport.aem4f : ClockP_tirtos.oem4f (.text:ClockP_stop)
                  0000c178    0000000a     drivers_MSP432P401R.aem4f : I2CMSP432.oem4f (.text:I2CMSP432_init)
                  0000c182    0000000a                               : I2C.oem4f (.text:I2C_transfer)
                  0000c18c    0000000a                               : SPIMSP432DMA.oem4f (.text:SPIMSP432DMA_init)
                  0000c196    0000000a                               : SPI.oem4f (.text:SPI_transfer)
                  0000c1a0    0000000a     tirtosport.aem4f : SemaphoreP_tirtos.oem4f (.text:SemaphoreP_post)
                  0000c1aa    0000000a     ADS1292R.obj (.text:Start_Read_Data_Continuous)
                  0000c1b4    0000000a     drivers_MSP432P401R.aem4f : UART.oem4f (.text:UART_write)
                  0000c1be    0000000a     main_rtos_pem4f.oem4f (.text:xdc_runtime_IHeap_alloc)
                  0000c1c8    0000000a     main_rtos_pem4f.oem4f (.text:xdc_runtime_IHeap_free)
                  0000c1d2    00000008     ADS1292R.obj (.text:ADS_init_resources)
                  0000c1da    00000008     tirtosport.aem4f : ClockP_tirtos.oem4f (.text:ClockP_Params_init)
                  0000c1e2    00000008     msp432p4xx_driverlib.lib : i2c.o (.text:I2C_enableInterrupt)
                  0000c1ea    00000008     MSP_EXP432P401R.obj (.text:MSP_EXP432P401R_initGPIO)
                  0000c1f2    00000008     MSP_EXP432P401R.obj (.text:MSP_EXP432P401R_initGeneral)
                  0000c1fa    00000008     msp432p4xx_driverlib.lib : pcm.o (.text:PCM_setPowerMode)
                  0000c202    00000008                              : pcm.o (.text:PCM_setPowerState)
                  0000c20a    00000008     tirtosport.aem4f : SemaphoreP_tirtos.oem4f (.text:SemaphoreP_Params_init)
                  0000c212    00000002     --HOLE-- [fill = 0]
                  0000c214    00000008     rtsv7M4_T_le_v4SPD16_eabi.lib : errno.c.obj (.text:__aeabi_errno_addr)
                  0000c21c    00000008     drivers_MSP432P401R.aem4f : I2CMSP432.oem4f (.text:blockingTransferCallback)
                  0000c224    00000008                               : SPIMSP432DMA.oem4f (.text:blockingTransferCallback)
                  0000c22c    00000008                               : UARTMSP432.oem4f (.text:readSemCallback)
                  0000c234    00000004     --HOLE-- [fill = 0]
                  0000c238    00000008     sysbios.aem4f : BIOS.obj (.text:ti_sysbios_family_arm_m3_Hwi_doSwiRestore__I)
                  0000c240    00000008                   : BIOS.obj (.text:ti_sysbios_family_arm_m3_Hwi_startup__E)
                  0000c248    00000008     drivers_MSP432P401R.aem4f : UARTMSP432.oem4f (.text:writeSemCallback)
                  0000c250    00000006     msp432p4xx_driverlib.lib : i2c.o (.text:I2C_getInterruptStatus)
                  0000c256    00000006                              : i2c.o (.text:I2C_masterReceiveMultiByteNext)
                  0000c25c    00000006     drivers_MSP432P401R.aem4f : SPIMSP432DMA.oem4f (.text:SPIMSP432DMA_control)
                  0000c262    00000006     msp432p4xx_driverlib.lib : uart.o (.text:UART_getInterruptStatus)
                  0000c268    00000006                              : uart.o (.text:UART_queryStatusFlags)
                  0000c26e    00000002     --HOLE-- [fill = 0]
                  0000c270    00000006     sysbios.aem4f : BIOS.obj (.text:ti_sysbios_family_arm_m3_Hwi_restoreFxn__E)
                  0000c276    00000002     --HOLE-- [fill = 0]
                  0000c278    00000006                   : BIOS.obj (.text:ti_sysbios_gates_GateHwi_leave__E)
                  0000c27e    00000002     --HOLE-- [fill = 0]
                  0000c280    00000006                   : BIOS.obj (.text:ti_sysbios_heaps_HeapMem_isBlocking__E)
                  0000c286    00000002     --HOLE-- [fill = 0]
                  0000c288    00000006                   : BIOS.obj (.text:ti_sysbios_knl_Clock_stop__E)
                  0000c28e    00000002     --HOLE-- [fill = 0]
                  0000c290    00000006                   : BIOS.obj (.text:ti_sysbios_knl_Queue_Instance_init__E)
                  0000c296    00000006     ti.targets.arm.rtsarm.aem4f : System.oem4f (.text:xdc_runtime_System_Module_startup__E)
                  0000c29c    00000004     --HOLE-- [fill = 0]
                  0000c2a0    00000004     sysbios.aem4f : BIOS.obj (.text:ti_sysbios_gates_GateHwi_query__E)
                  0000c2a4    00000004     --HOLE-- [fill = 0]
                  0000c2a8    00000004                   : BIOS.obj (.text:ti_sysbios_gates_GateMutex_query__E)
                  0000c2ac    00000004     --HOLE-- [fill = 0]
                  0000c2b0    00000004                   : BIOS.obj (.text:ti_sysbios_knl_Clock_setTimeout__E)
                  0000c2b4    00000004     --HOLE-- [fill = 0]
                  0000c2b8    00000004                   : BIOS.obj (.text:ti_sysbios_knl_Task_startup__E)
                  0000c2bc    00000004     --HOLE-- [fill = 0]
                  0000c2c0    00000002                   : BIOS.obj (.text:ti_sysbios_BIOS_linkedWithIncorrectBootLibrary__E)
                  0000c2c2    00000006     --HOLE-- [fill = 0]
                  0000c2c8    00000002                   : BIOS.obj (.text:ti_sysbios_family_arm_m3_TimestampProvider_rolloverFunc__E)
                  0000c2ca    00000006     --HOLE-- [fill = 0]
                  0000c2d0    00000002                   : BIOS.obj (.text:ti_sysbios_gates_GateHwi_Instance_init__E)

.const     0    0000c2d8    00002d66     
                  0000c2d8    0000217e     main_rtos_pem4f.oem4f (.const:xdc_runtime_Text_charTab__A)
                  0000e456    00000002     main_rtos_pem4f.oem4f (.const:ti_sysbios_family_arm_m3_Hwi_Module__id__C)
                  0000e458    000001a8     AFE4403.obj (.const:AFE_REG)
                  0000e600    00000100     main_rtos_pem4f.oem4f (.const:xdc_runtime_Text_nodeTab__A)
                  0000e700    00000080     MSP_EXP432P401R.obj (.const:uartMSP432Baudrates)
                  0000e780    00000060     main_rtos_pem4f.oem4f (.const:ti_uia_loggers_LoggerStopMode_Module__FXNS__C)
                  0000e7e0    00000054     main_rtos_pem4f.oem4f (.const)
                  0000e834    00000048     main_rtos_pem4f.oem4f (.const:.string)
                  0000e87c    00000004     Pace_detect.obj (.const:$P$T0$1)
                  0000e880    00000030     rtsv7M4_T_le_v4SPD16_eabi.lib : e_pow.c.obj (.const:$O1$$)
                  0000e8b0    00000030     MSP_EXP432P401R.obj (.const:spiMSP432DMAHWAttrs)
                  0000e8e0    00000030     main_rtos_pem4f.oem4f (.const:ti_sysbios_family_arm_m3_Hwi_Object__PARAMS__C)
                  0000e910    00000028     drivers_MSP432P401R.aem4f : UARTMSP432.oem4f (.const:UARTMSP432_fxnTable)
                  0000e938    00000028                               : SPIMSP432DMA.oem4f (.const)
                  0000e960    00000028     main_rtos_pem4f.oem4f (.const:ti_sysbios_heaps_HeapMem_Module__FXNS__C)
                  0000e988    00000028     main_rtos_pem4f.oem4f (.const:ti_uia_loggers_LoggerStopMode_Object__PARAMS__C)
                  0000e9b0    00000028     main_rtos_pem4f.oem4f (.const:xdc_runtime_Startup_sfxnTab__A)
                  0000e9d8    00000024     drivers_MSP432P401R.aem4f : UART.oem4f (.const:UART_defaultParams)
                  0000e9fc    00000024                               : UARTMSP432.oem4f (.const)
                  0000ea20    00000024     main_rtos_pem4f.oem4f (.const:ti_sysbios_gates_GateHwi_Module__FXNS__C)
                  0000ea44    00000024     main_rtos_pem4f.oem4f (.const:ti_sysbios_gates_GateMutex_Module__FXNS__C)
                  0000ea68    00000024     main_rtos_pem4f.oem4f (.const:ti_sysbios_heaps_HeapMem_Object__PARAMS__C)
                  0000ea8c    00000024     main_rtos_pem4f.oem4f (.const:ti_sysbios_knl_Clock_Object__PARAMS__C)
                  0000eab0    00000024     main_rtos_pem4f.oem4f (.const:ti_sysbios_knl_Semaphore_Object__PARAMS__C)
                  0000ead4    00000024     MSP_EXP432P401R.obj (.const:uartMSP432HWAttrs)
                  0000eaf8    00000020     drivers_MSP432P401R.aem4f : I2CMSP432.oem4f (.const)
                  0000eb18    00000020                               : SPI.oem4f (.const)
                  0000eb38    00000020     main_rtos_pem4f.oem4f (.const:ti_sysbios_family_arm_m3_Hwi_Object__DESC__C)
                  0000eb58    00000020     main_rtos_pem4f.oem4f (.const:ti_sysbios_gates_GateHwi_Object__DESC__C)
                  0000eb78    00000020     main_rtos_pem4f.oem4f (.const:ti_sysbios_gates_GateMutex_Object__DESC__C)
                  0000eb98    00000020     main_rtos_pem4f.oem4f (.const:ti_sysbios_heaps_HeapMem_Object__DESC__C)
                  0000ebb8    00000020     main_rtos_pem4f.oem4f (.const:ti_sysbios_knl_Clock_Object__DESC__C)
                  0000ebd8    00000020     main_rtos_pem4f.oem4f (.const:ti_sysbios_knl_Queue_Object__DESC__C)
                  0000ebf8    00000020     main_rtos_pem4f.oem4f (.const:ti_sysbios_knl_Semaphore_Object__DESC__C)
                  0000ec18    00000020     main_rtos_pem4f.oem4f (.const:ti_uia_loggers_LoggerStopMode_Object__DESC__C)
                  0000ec38    00000019     MSP432_UART_TX.obj (.const:.string:$P$T0$1)
                  0000ec51    00000018     ADS1292R.obj (.const:ADS_REG)
                  0000ec69    00000001     main_rtos_pem4f.oem4f (.const:xdc_runtime_Error_policy__C)
                  0000ec6a    00000002     main_rtos_pem4f.oem4f (.const:ti_sysbios_family_arm_m3_Hwi_Module__loggerDefined__C)
                  0000ec6c    00000018     MSP_EXP432P401R.obj (.const:I2C_config)
                  0000ec84    00000018     MSP_EXP432P401R.obj (.const:SPI_config)
                  0000ec9c    00000018     MSP_EXP432P401R.obj (.const:UART_config)
                  0000ecb4    00000018     main_rtos_pem4f.oem4f (.const:ti_sysbios_gates_GateHwi_Object__PARAMS__C)
                  0000eccc    00000018     main_rtos_pem4f.oem4f (.const:ti_sysbios_gates_GateMutex_Object__PARAMS__C)
                  0000ece4    00000018     main_rtos_pem4f.oem4f (.const:ti_sysbios_knl_Queue_Object__PARAMS__C)
                  0000ecfc    00000014     MSP_EXP432P401R.obj (.const:GPIOMSP432_config)
                  0000ed10    00000014     main_rtos_pem4f.oem4f (.const:xdc_runtime_Startup_sfxnRts__A)
                  0000ed24    00000010     MSP_EXP432P401R.obj (.const:PowerMSP432_config)
                  0000ed34    00000010     drivers_MSP432P401R.aem4f : I2C.oem4f (.const)
                  0000ed44    00000010     MSP_EXP432P401R.obj (.const:i2cMSP432HWAttrs)
                  0000ed54    0000000c     drivers_MSP432P401R.aem4f : GPIOMSP432.oem4f (.const:.string)
                  0000ed60    0000000c     main_rtos_pem4f.oem4f (.const:ti_sysbios_knl_Idle_funcList__A)
                  0000ed6c    0000000c     MSP_EXP432P401R.obj (.const:udmaMSP432HWAttrs)
                  0000ed78    0000000c     main_rtos_pem4f.oem4f (.const:xdc_runtime_Startup_firstFxns__A)
                  0000ed84    00000008     MSP_EXP432P401R.obj (.const:UDMAMSP432_config)
                  0000ed8c    00000008     main_rtos_pem4f.oem4f (.const:ti_sysbios_family_arm_m3_Hwi_excHookFuncs__A)
                  0000ed94    00000008     main_rtos_pem4f.oem4f (.const:ti_sysbios_knl_Idle_funcList__C)
                  0000ed9c    00000008     main_rtos_pem4f.oem4f (.const:xdc_runtime_Startup_firstFxns__C)
                  0000eda4    00000008     main_rtos_pem4f.oem4f (.const:xdc_runtime_Startup_lastFxns__C)
                  0000edac    00000005     drivers_MSP432P401R.aem4f : UARTMSP432.oem4f (.const:.string)
                  0000edb1    00000001     --HOLE-- [fill = 0]
                  0000edb2    00000002     main_rtos_pem4f.oem4f (.const:ti_sysbios_family_arm_m3_Timer_Module__id__C)
                  0000edb4    00000004     main_rtos_pem4f.oem4f (.const:ti_sysbios_family_arm_m3_Hwi_E_NMI__C)
                  0000edb8    00000004     main_rtos_pem4f.oem4f (.const:ti_sysbios_family_arm_m3_Hwi_E_alreadyDefined__C)
                  0000edbc    00000004     main_rtos_pem4f.oem4f (.const:ti_sysbios_family_arm_m3_Hwi_E_busFault__C)
                  0000edc0    00000004     main_rtos_pem4f.oem4f (.const:ti_sysbios_family_arm_m3_Hwi_E_debugMon__C)
                  0000edc4    00000004     main_rtos_pem4f.oem4f (.const:ti_sysbios_family_arm_m3_Hwi_E_hardFault__C)
                  0000edc8    00000004     main_rtos_pem4f.oem4f (.const:ti_sysbios_family_arm_m3_Hwi_E_memFault__C)
                  0000edcc    00000004     main_rtos_pem4f.oem4f (.const:ti_sysbios_family_arm_m3_Hwi_E_noIsr__C)
                  0000edd0    00000004     main_rtos_pem4f.oem4f (.const:ti_sysbios_family_arm_m3_Hwi_E_reserved__C)
                  0000edd4    00000004     main_rtos_pem4f.oem4f (.const:ti_sysbios_family_arm_m3_Hwi_E_svCall__C)
                  0000edd8    00000004     main_rtos_pem4f.oem4f (.const:ti_sysbios_family_arm_m3_Hwi_E_usageFault__C)
                  0000eddc    00000004     main_rtos_pem4f.oem4f (.const:ti_sysbios_family_arm_m3_Hwi_LD_end__C)
                  0000ede0    00000004     main_rtos_pem4f.oem4f (.const:ti_sysbios_family_arm_m3_Hwi_LM_begin__C)
                  0000ede4    00000004     main_rtos_pem4f.oem4f (.const:ti_sysbios_family_arm_m3_Hwi_Module__diagsEnabled__C)
                  0000ede8    00000004     main_rtos_pem4f.oem4f (.const:ti_sysbios_family_arm_m3_Hwi_Module__diagsIncluded__C)
                  0000edec    00000004     main_rtos_pem4f.oem4f (.const:ti_sysbios_family_arm_m3_Hwi_Module__diagsMask__C)
                  0000edf0    00000004     main_rtos_pem4f.oem4f (.const:ti_sysbios_family_arm_m3_Hwi_Module__loggerFxn1__C)
                  0000edf4    00000004     main_rtos_pem4f.oem4f (.const:ti_sysbios_family_arm_m3_Hwi_Module__loggerFxn8__C)
                  0000edf8    00000004     main_rtos_pem4f.oem4f (.const:ti_sysbios_family_arm_m3_Hwi_Module__loggerObj__C)
                  0000edfc    00000004     main_rtos_pem4f.oem4f (.const:ti_sysbios_family_arm_m3_Hwi_NUM_INTERRUPTS__C)
                  0000ee00    00000004     main_rtos_pem4f.oem4f (.const:ti_sysbios_family_arm_m3_Hwi_Object__count__C)
                  0000ee04    00000004     main_rtos_pem4f.oem4f (.const:ti_sysbios_family_arm_m3_Hwi_ccr__C)
                  0000ee08    00000004     main_rtos_pem4f.oem4f (.const:ti_sysbios_family_arm_m3_Hwi_excHandlerFunc__C)
                  0000ee0c    00000004     main_rtos_pem4f.oem4f (.const:ti_sysbios_family_arm_m3_Hwi_excHookFuncs__C)
                  0000ee10    00000004     main_rtos_pem4f.oem4f (.const:ti_sysbios_family_arm_m3_Hwi_nullIsrFunc__C)
                  0000ee14    00000004     main_rtos_pem4f.oem4f (.const:ti_sysbios_family_arm_m3_Hwi_priGroup__C)
                  0000ee18    00000004     main_rtos_pem4f.oem4f (.const:ti_sysbios_family_arm_m3_Timer_E_cannotSupport__C)
                  0000ee1c    00000004     main_rtos_pem4f.oem4f (.const:ti_sysbios_family_arm_m3_Timer_startupNeeded__C)
                  0000ee20    00000004     main_rtos_pem4f.oem4f (.const:ti_sysbios_family_arm_msp432_Timer_numTimerDevices__C)
                  0000ee24    00000004     main_rtos_pem4f.oem4f (.const:ti_sysbios_family_arm_msp432_Timer_startupNeeded__C)
                  0000ee28    00000004     main_rtos_pem4f.oem4f (.const:ti_sysbios_gates_GateMutex_A_badContext__C)
                  0000ee2c    00000004     main_rtos_pem4f.oem4f (.const:ti_sysbios_gates_GateMutex_Instance_State_sem__O)
                  0000ee30    00000004     main_rtos_pem4f.oem4f (.const:ti_sysbios_gates_GateMutex_Module__diagsEnabled__C)
                  0000ee34    00000004     main_rtos_pem4f.oem4f (.const:ti_sysbios_gates_GateMutex_Module__diagsIncluded__C)
                  0000ee38    00000004     main_rtos_pem4f.oem4f (.const:ti_sysbios_gates_GateMutex_Module__diagsMask__C)
                  0000ee3c    00000004     main_rtos_pem4f.oem4f (.const:ti_sysbios_hal_Hwi_E_stackOverflow__C)
                  0000ee40    00000004     main_rtos_pem4f.oem4f (.const:ti_sysbios_heaps_HeapMem_A_align__C)
                  0000ee44    00000004     main_rtos_pem4f.oem4f (.const:ti_sysbios_heaps_HeapMem_A_heapSize__C)
                  0000ee48    00000004     main_rtos_pem4f.oem4f (.const:ti_sysbios_heaps_HeapMem_A_invalidFree__C)
                  0000ee4c    00000004     main_rtos_pem4f.oem4f (.const:ti_sysbios_heaps_HeapMem_A_zeroBlock__C)
                  0000ee50    00000004     main_rtos_pem4f.oem4f (.const:ti_sysbios_heaps_HeapMem_E_memory__C)
                  0000ee54    00000004     main_rtos_pem4f.oem4f (.const:ti_sysbios_heaps_HeapMem_Module__diagsEnabled__C)
                  0000ee58    00000004     main_rtos_pem4f.oem4f (.const:ti_sysbios_heaps_HeapMem_Module__diagsIncluded__C)
                  0000ee5c    00000004     main_rtos_pem4f.oem4f (.const:ti_sysbios_heaps_HeapMem_Module__diagsMask__C)
                  0000ee60    00000004     main_rtos_pem4f.oem4f (.const:ti_sysbios_heaps_HeapMem_Module__gateObj__C)
                  0000ee64    00000004     main_rtos_pem4f.oem4f (.const:ti_sysbios_heaps_HeapMem_Object__count__C)
                  0000ee68    00000004     main_rtos_pem4f.oem4f (.const:ti_sysbios_heaps_HeapMem_reqAlign__C)
                  0000ee6c    00000004     main_rtos_pem4f.oem4f (.const:ti_sysbios_knl_Clock_A_badThreadType__C)
                  0000ee70    00000004     main_rtos_pem4f.oem4f (.const:ti_sysbios_knl_Clock_LM_begin__C)
                  0000ee74    00000004     main_rtos_pem4f.oem4f (.const:ti_sysbios_knl_Clock_LM_tick__C)
                  0000ee78    00000004     main_rtos_pem4f.oem4f (.const:ti_sysbios_knl_Clock_LW_delayed__C)
                  0000ee7c    00000004     main_rtos_pem4f.oem4f (.const:ti_sysbios_knl_Clock_Module_State_clockQ__O)
                  0000ee80    00000004     main_rtos_pem4f.oem4f (.const:ti_sysbios_knl_Clock_Module__diagsEnabled__C)
                  0000ee84    00000004     main_rtos_pem4f.oem4f (.const:ti_sysbios_knl_Clock_Module__diagsIncluded__C)
                  0000ee88    00000004     main_rtos_pem4f.oem4f (.const:ti_sysbios_knl_Clock_Module__diagsMask__C)
                  0000ee8c    00000004     main_rtos_pem4f.oem4f (.const:ti_sysbios_knl_Clock_Module__loggerFxn1__C)
                  0000ee90    00000004     main_rtos_pem4f.oem4f (.const:ti_sysbios_knl_Clock_Module__loggerFxn2__C)
                  0000ee94    00000004     main_rtos_pem4f.oem4f (.const:ti_sysbios_knl_Clock_Module__loggerObj__C)
                  0000ee98    00000004     main_rtos_pem4f.oem4f (.const:ti_sysbios_knl_Semaphore_A_badContext__C)
                  0000ee9c    00000004     main_rtos_pem4f.oem4f (.const:ti_sysbios_knl_Semaphore_A_noEvents__C)
                  0000eea0    00000004     main_rtos_pem4f.oem4f (.const:ti_sysbios_knl_Semaphore_A_overflow__C)
                  0000eea4    00000004     main_rtos_pem4f.oem4f (.const:ti_sysbios_knl_Semaphore_A_pendTaskDisabled__C)
                  0000eea8    00000004     main_rtos_pem4f.oem4f (.const:ti_sysbios_knl_Semaphore_Instance_State_pendQ__O)
                  0000eeac    00000004     main_rtos_pem4f.oem4f (.const:ti_sysbios_knl_Semaphore_LM_pend__C)
                  0000eeb0    00000004     main_rtos_pem4f.oem4f (.const:ti_sysbios_knl_Semaphore_LM_post__C)
                  0000eeb4    00000004     main_rtos_pem4f.oem4f (.const:ti_sysbios_knl_Semaphore_Module__diagsEnabled__C)
                  0000eeb8    00000004     main_rtos_pem4f.oem4f (.const:ti_sysbios_knl_Semaphore_Module__diagsIncluded__C)
                  0000eebc    00000004     main_rtos_pem4f.oem4f (.const:ti_sysbios_knl_Semaphore_Module__diagsMask__C)
                  0000eec0    00000004     main_rtos_pem4f.oem4f (.const:ti_sysbios_knl_Semaphore_Module__loggerFxn2__C)
                  0000eec4    00000004     main_rtos_pem4f.oem4f (.const:ti_sysbios_knl_Semaphore_Module__loggerFxn4__C)
                  0000eec8    00000004     main_rtos_pem4f.oem4f (.const:ti_sysbios_knl_Semaphore_Module__loggerObj__C)
                  0000eecc    00000004     main_rtos_pem4f.oem4f (.const:ti_sysbios_knl_Swi_LD_end__C)
                  0000eed0    00000004     main_rtos_pem4f.oem4f (.const:ti_sysbios_knl_Swi_LM_begin__C)
                  0000eed4    00000004     main_rtos_pem4f.oem4f (.const:ti_sysbios_knl_Swi_LM_post__C)
                  0000eed8    00000004     main_rtos_pem4f.oem4f (.const:ti_sysbios_knl_Swi_Module__diagsEnabled__C)
                  0000eedc    00000004     main_rtos_pem4f.oem4f (.const:ti_sysbios_knl_Swi_Module__diagsIncluded__C)
                  0000eee0    00000004     main_rtos_pem4f.oem4f (.const:ti_sysbios_knl_Swi_Module__diagsMask__C)
                  0000eee4    00000004     main_rtos_pem4f.oem4f (.const:ti_sysbios_knl_Swi_Module__loggerFxn1__C)
                  0000eee8    00000004     main_rtos_pem4f.oem4f (.const:ti_sysbios_knl_Swi_Module__loggerFxn4__C)
                  0000eeec    00000004     main_rtos_pem4f.oem4f (.const:ti_sysbios_knl_Swi_Module__loggerObj__C)
                  0000eef0    00000004     main_rtos_pem4f.oem4f (.const:ti_sysbios_knl_Swi_Object__count__C)
                  0000eef4    00000004     main_rtos_pem4f.oem4f (.const:ti_sysbios_knl_Task_A_badTimeout__C)
                  0000eef8    00000004     main_rtos_pem4f.oem4f (.const:ti_sysbios_knl_Task_A_sleepTaskDisabled__C)
                  0000eefc    00000004     main_rtos_pem4f.oem4f (.const:ti_sysbios_knl_Task_E_spOutOfBounds__C)
                  0000ef00    00000004     main_rtos_pem4f.oem4f (.const:ti_sysbios_knl_Task_E_stackOverflow__C)
                  0000ef04    00000004     main_rtos_pem4f.oem4f (.const:ti_sysbios_knl_Task_LD_block__C)
                  0000ef08    00000004     main_rtos_pem4f.oem4f (.const:ti_sysbios_knl_Task_LD_exit__C)
                  0000ef0c    00000004     main_rtos_pem4f.oem4f (.const:ti_sysbios_knl_Task_LD_ready__C)
                  0000ef10    00000004     main_rtos_pem4f.oem4f (.const:ti_sysbios_knl_Task_LM_sleep__C)
                  0000ef14    00000004     main_rtos_pem4f.oem4f (.const:ti_sysbios_knl_Task_LM_switch__C)
                  0000ef18    00000004     main_rtos_pem4f.oem4f (.const:ti_sysbios_knl_Task_LM_yield__C)
                  0000ef1c    00000004     main_rtos_pem4f.oem4f (.const:ti_sysbios_knl_Task_Module_State_inactiveQ__O)
                  0000ef20    00000004     main_rtos_pem4f.oem4f (.const:ti_sysbios_knl_Task_Module__diagsEnabled__C)
                  0000ef24    00000004     main_rtos_pem4f.oem4f (.const:ti_sysbios_knl_Task_Module__diagsIncluded__C)
                  0000ef28    00000004     main_rtos_pem4f.oem4f (.const:ti_sysbios_knl_Task_Module__diagsMask__C)
                  0000ef2c    00000004     main_rtos_pem4f.oem4f (.const:ti_sysbios_knl_Task_Module__loggerFxn2__C)
                  0000ef30    00000004     main_rtos_pem4f.oem4f (.const:ti_sysbios_knl_Task_Module__loggerFxn4__C)
                  0000ef34    00000004     main_rtos_pem4f.oem4f (.const:ti_sysbios_knl_Task_Module__loggerObj__C)
                  0000ef38    00000004     main_rtos_pem4f.oem4f (.const:ti_sysbios_knl_Task_Object__count__C)
                  0000ef3c    00000004     main_rtos_pem4f.oem4f (.const:ti_sysbios_knl_Task_allBlockedFunc__C)
                  0000ef40    00000004     main_rtos_pem4f.oem4f (.const:ti_sysbios_knl_Task_numConstructedTasks__C)
                  0000ef44    00000004     main_rtos_pem4f.oem4f (.const:ti_sysbios_utils_Load_LS_cpuLoad__C)
                  0000ef48    00000004     main_rtos_pem4f.oem4f (.const:ti_sysbios_utils_Load_Module__diagsEnabled__C)
                  0000ef4c    00000004     main_rtos_pem4f.oem4f (.const:ti_sysbios_utils_Load_Module__diagsIncluded__C)
                  0000ef50    00000004     main_rtos_pem4f.oem4f (.const:ti_sysbios_utils_Load_Module__diagsMask__C)
                  0000ef54    00000004     main_rtos_pem4f.oem4f (.const:ti_sysbios_utils_Load_Module__loggerFxn1__C)
                  0000ef58    00000004     main_rtos_pem4f.oem4f (.const:ti_sysbios_utils_Load_Module__loggerObj__C)
                  0000ef5c    00000004     main_rtos_pem4f.oem4f (.const:ti_sysbios_utils_Load_postUpdate__C)
                  0000ef60    00000004     main_rtos_pem4f.oem4f (.const:ti_sysbios_utils_Load_windowInMs__C)
                  0000ef64    00000004     main_rtos_pem4f.oem4f (.const:ti_uia_loggers_LoggerStopMode_Module__diagsEnabled__C)
                  0000ef68    00000004     main_rtos_pem4f.oem4f (.const:ti_uia_loggers_LoggerStopMode_Module__diagsIncluded__C)
                  0000ef6c    00000004     main_rtos_pem4f.oem4f (.const:ti_uia_loggers_LoggerStopMode_Module__diagsMask__C)
                  0000ef70    00000004     main_rtos_pem4f.oem4f (.const:ti_uia_loggers_LoggerStopMode_Object__count__C)
                  0000ef74    00000004     main_rtos_pem4f.oem4f (.const:ti_uia_runtime_ILoggerSnapshot_Interface__BASE__C)
                  0000ef78    00000004     main_rtos_pem4f.oem4f (.const:ti_uia_runtime_IUIATransfer_Interface__BASE__C)
                  0000ef7c    00000004     main_rtos_pem4f.oem4f (.const:xdc_runtime_Assert_E_assertFailed__C)
                  0000ef80    00000004     main_rtos_pem4f.oem4f (.const:xdc_runtime_Core_A_initializedParams__C)
                  0000ef84    00000004     main_rtos_pem4f.oem4f (.const:xdc_runtime_Core_Module__diagsEnabled__C)
                  0000ef88    00000004     main_rtos_pem4f.oem4f (.const:xdc_runtime_Core_Module__diagsIncluded__C)
                  0000ef8c    00000004     main_rtos_pem4f.oem4f (.const:xdc_runtime_Core_Module__diagsMask__C)
                  0000ef90    00000004     main_rtos_pem4f.oem4f (.const:xdc_runtime_Error_E_memory__C)
                  0000ef94    00000004     main_rtos_pem4f.oem4f (.const:xdc_runtime_Error_Module__diagsEnabled__C)
                  0000ef98    00000004     main_rtos_pem4f.oem4f (.const:xdc_runtime_Error_Module__diagsIncluded__C)
                  0000ef9c    00000004     main_rtos_pem4f.oem4f (.const:xdc_runtime_Error_Module__diagsMask__C)
                  0000efa0    00000004     main_rtos_pem4f.oem4f (.const:xdc_runtime_Error_Module__loggerFxn8__C)
                  0000efa4    00000004     main_rtos_pem4f.oem4f (.const:xdc_runtime_Error_Module__loggerObj__C)
                  0000efa8    00000004     main_rtos_pem4f.oem4f (.const:xdc_runtime_Error_policyFxn__C)
                  0000efac    00000004     main_rtos_pem4f.oem4f (.const:xdc_runtime_Error_raiseHook__C)
                  0000efb0    00000004     main_rtos_pem4f.oem4f (.const:xdc_runtime_IFilterLogger_Interface__BASE__C)
                  0000efb4    00000004     main_rtos_pem4f.oem4f (.const:xdc_runtime_IGateProvider_Interface__BASE__C)
                  0000efb8    00000004     main_rtos_pem4f.oem4f (.const:xdc_runtime_IHeap_Interface__BASE__C)
                  0000efbc    00000004     main_rtos_pem4f.oem4f (.const:xdc_runtime_ILogger_Interface__BASE__C)
                  0000efc0    00000004     main_rtos_pem4f.oem4f (.const:xdc_runtime_IModule_Interface__BASE__C)
                  0000efc4    00000004     main_rtos_pem4f.oem4f (.const:xdc_runtime_Log_L_error__C)
                  0000efc8    00000004     main_rtos_pem4f.oem4f (.const:xdc_runtime_Memory_defaultHeapInstance__C)
                  0000efcc    00000004     main_rtos_pem4f.oem4f (.const:xdc_runtime_Startup_execImpl__C)
                  0000efd0    00000004     main_rtos_pem4f.oem4f (.const:xdc_runtime_Startup_lastFxns__A)
                  0000efd4    00000004     main_rtos_pem4f.oem4f (.const:xdc_runtime_Startup_maxPasses__C)
                  0000efd8    00000004     main_rtos_pem4f.oem4f (.const:xdc_runtime_Startup_sfxnRts__C)
                  0000efdc    00000004     main_rtos_pem4f.oem4f (.const:xdc_runtime_Startup_sfxnTab__C)
                  0000efe0    00000004     main_rtos_pem4f.oem4f (.const:xdc_runtime_System_Module__gateObj__C)
                  0000efe4    00000004     main_rtos_pem4f.oem4f (.const:xdc_runtime_System_abortFxn__C)
                  0000efe8    00000004     main_rtos_pem4f.oem4f (.const:xdc_runtime_System_exitFxn__C)
                  0000efec    00000004     main_rtos_pem4f.oem4f (.const:xdc_runtime_System_extendFxn__C)
                  0000eff0    00000004     main_rtos_pem4f.oem4f (.const:xdc_runtime_System_maxAtexitHandlers__C)
                  0000eff4    00000004     main_rtos_pem4f.oem4f (.const:xdc_runtime_Text_charTab__C)
                  0000eff8    00000004     main_rtos_pem4f.oem4f (.const:xdc_runtime_Text_nameEmpty__C)
                  0000effc    00000004     main_rtos_pem4f.oem4f (.const:xdc_runtime_Text_nameStatic__C)
                  0000f000    00000004     main_rtos_pem4f.oem4f (.const:xdc_runtime_Text_nameUnknown__C)
                  0000f004    00000004     main_rtos_pem4f.oem4f (.const:xdc_runtime_Text_nodeTab__C)
                  0000f008    00000004     main_rtos_pem4f.oem4f (.const:xdc_runtime_Text_visitRopeFxn__C)
                  0000f00c    00000002     main_rtos_pem4f.oem4f (.const:ti_sysbios_family_arm_m3_TimestampProvider_configTimer__C)
                  0000f00e    00000002     main_rtos_pem4f.oem4f (.const:ti_sysbios_gates_GateMutex_Module__id__C)
                  0000f010    00000002     main_rtos_pem4f.oem4f (.const:ti_sysbios_hal_Hwi_Module__id__C)
                  0000f012    00000002     main_rtos_pem4f.oem4f (.const:ti_sysbios_heaps_HeapMem_Module__id__C)
                  0000f014    00000002     main_rtos_pem4f.oem4f (.const:ti_sysbios_knl_Clock_Module__id__C)
                  0000f016    00000002     main_rtos_pem4f.oem4f (.const:ti_sysbios_knl_Clock_Module__loggerDefined__C)
                  0000f018    00000002     main_rtos_pem4f.oem4f (.const:ti_sysbios_knl_Semaphore_Module__id__C)
                  0000f01a    00000002     main_rtos_pem4f.oem4f (.const:ti_sysbios_knl_Semaphore_Module__loggerDefined__C)
                  0000f01c    00000002     main_rtos_pem4f.oem4f (.const:ti_sysbios_knl_Swi_Module__id__C)
                  0000f01e    00000002     main_rtos_pem4f.oem4f (.const:ti_sysbios_knl_Swi_Module__loggerDefined__C)
                  0000f020    00000002     main_rtos_pem4f.oem4f (.const:ti_sysbios_knl_Task_Module__id__C)
                  0000f022    00000002     main_rtos_pem4f.oem4f (.const:ti_sysbios_knl_Task_Module__loggerDefined__C)
                  0000f024    00000002     main_rtos_pem4f.oem4f (.const:ti_sysbios_utils_Load_Module__id__C)
                  0000f026    00000002     main_rtos_pem4f.oem4f (.const:ti_sysbios_utils_Load_Module__loggerDefined__C)
                  0000f028    00000002     main_rtos_pem4f.oem4f (.const:ti_sysbios_utils_Load_updateInIdle__C)
                  0000f02a    00000002     main_rtos_pem4f.oem4f (.const:ti_uia_loggers_LoggerStopMode_Module__id__C)
                  0000f02c    00000002     main_rtos_pem4f.oem4f (.const:ti_uia_loggers_LoggerStopMode_isTimestampEnabled__C)
                  0000f02e    00000002     main_rtos_pem4f.oem4f (.const:xdc_runtime_Core_Module__id__C)
                  0000f030    00000002     main_rtos_pem4f.oem4f (.const:xdc_runtime_Error_Module__loggerDefined__C)
                  0000f032    00000002     main_rtos_pem4f.oem4f (.const:xdc_runtime_Error_maxDepth__C)
                  0000f034    00000002     main_rtos_pem4f.oem4f (.const:xdc_runtime_Memory_Module__id__C)
                  0000f036    00000002     main_rtos_pem4f.oem4f (.const:xdc_runtime_Text_charCnt__C)
                  0000f038    00000002     main_rtos_pem4f.oem4f (.const:xdc_runtime_Text_isLoaded__C)
                  0000f03a    00000002     main_rtos_pem4f.oem4f (.const:xdc_runtime_Text_registryModsLastId__C)
                  0000f03c    00000002     main_rtos_pem4f.oem4f (.const:xdc_runtime_Text_unnamedModsLastId__C)

.cinit     0    0000f040    00000450     
                  0000f040    00000419     (.cinit..data.load) [load image, compression = lzss]
                  0000f459    00000003     --HOLE-- [fill = 0]
                  0000f45c    0000000c     (__TI_handler_table)
                  0000f468    00000008     (.cinit..bss.load) [load image, compression = zero_init]
                  0000f470    00000008     (.cinit..vecs.load) [load image, compression = zero_init]
                  0000f478    00000018     (__TI_cinit_table)

.resetVecs 
*          0    00000000    0000003c     
                  00000000    0000003c     main_rtos_pem4f.oem4f (.resetVecs)

.bss       0    20000200    0000a2e0     UNINITIALIZED
                  20000200    00006d60     (.common:channel_2)
                  20006f60    00001c00     main_rtos_pem4f.oem4f (.bss:taskStackSection)
                  20008b60    00000800     (.common:ti_sysbios_heaps_HeapMem_Instance_State_0_buf__A)
                  20009360    00000020     (.common:uartMSP432RingBuffer)
                  20009380    00000400     (.common:ti_uia_loggers_LoggerStopMode_Instance_State_1_packetArray__A)
                  20009780    00000400     (.common:ti_uia_loggers_LoggerStopMode_Instance_State_2_packetArray__A)
                  20009b80    00000200     (.common:ti_uia_loggers_LoggerStopMode_Instance_State_0_packetArray__A)
                  20009d80    00000140     (.common:ti_sysbios_family_arm_m3_Hwi_dispatchTable)
                  20009ec0    00000120     rtsv7M4_T_le_v4SPD16_eabi.lib : trgmsg.c.obj (.bss:_CIOBUF_)
                  20009fe0    000000d0     (.common:AFE_REG_READ)
                  2000a0b0    000000a0     (.common:__TI_tmpnams)
                  2000a150    00000080     (.common:uartMSP432Objects)
                  2000a1d0    00000030     drivers_MSP432P401R.aem4f : GPIOMSP432.oem4f (.bss:gpioCallbackInfo)
                  2000a200    00000080     MSP_EXP432P401R.obj (.bss:dmaControlTable)
                  2000a280    00000070     (.common:spiMSP432DMAObjects)
                  2000a2f0    00000048     (.common:i2cMSP432Objects)
                  2000a338    00000028     (.common:uart_tx_buffer)
                  2000a360    0000001c     (.common:i2c_transaction)
                  2000a37c    00000004     (.common:Led_1)
                  2000a380    00000030     (.common:ti_uia_loggers_LoggerStopMode_Instance_State_0_hdr__A)
                  2000a3b0    00000024     (.common:uartParams)
                  2000a3d4    00000014     (.common:masterTransaction)
                  2000a3e8    00000010     (.common:i2c_params)
                  2000a3f8    00000008     (.common:parmbuf)
                  2000a400    00000030     (.common:ti_uia_loggers_LoggerStopMode_Instance_State_1_hdr__A)
                  2000a430    0000000c     (.common:ADS_REG_READ)
                  2000a43c    0000000c     (.common:masterRxBuffer)
                  2000a448    0000000c     (.common:masterTxBuffer)
                  2000a454    0000000c     (.common:read_data)
                  2000a460    00000008     (.common:udmaMSP432Object)
                  2000a468    00000004     (.common:Led_1_amb)
                  2000a46c    00000004     (.common:Led_2)
                  2000a470    00000004     (.common:Led_2_amb)
                  2000a474    00000004     (.common:ecg)
                  2000a478    00000004     (.common:i2c_handle)
                  2000a47c    00000004     (.common:i2c_rxBuffer)
                  2000a480    00000030     (.common:ti_uia_loggers_LoggerStopMode_Instance_State_2_hdr__A)
                  2000a4b0    00000004     (.common:i2c_txBuffer)
                  2000a4b4    00000004     (.common:leadoff_detect)
                  2000a4b8    00000004     (.common:masterSpi)
                  2000a4bc    00000004     (.common:motion)
                  2000a4c0    00000004     (.common:resp)
                  2000a4c4    00000004     (.common:transferOK)
                  2000a4c8    00000004     (.common:uart)
                  2000a4cc    00000002     (.common:Tmp_1)
                  2000a4ce    00000002     (.common:Tmp_2)
                  2000a4d0    00000002     (.common:Tmp_3)
                  2000a4d2    00000002     (.common:pace_detected)
                  2000a4d4    00000002     (.common:pace_height)
                  2000a4d6    00000002     (.common:pace_rise_time)
                  2000a4d8    00000002     (.common:pace_width)
                  2000a4da    00000002     (.common:patient_alarmed)
                  2000a4dc    00000001     (.common:ADS_read_done_flag)
                  2000a4dd    00000001     (.common:AFE_read_done_flag)
                  2000a4de    00000001     (.common:i2c_transfer_status)
                  2000a4df    00000001     (.common:tx_size)

.data      0    2000a4e0    00000bcc     UNINITIALIZED
                  2000a4e0    00000214     main_rtos_pem4f.oem4f (.data:ti_sysbios_knl_Task_Object__table__V)
                  2000a6f4    000000f0     rtsv7M4_T_le_v4SPD16_eabi.lib : defs.c.obj (.data:_ftable)
                  2000a7e4    000000f0     main_rtos_pem4f.oem4f (.data:ti_sysbios_knl_Semaphore_Object__table__V)
                  2000a8d4    0000009c     drivers_MSP432P401R.aem4f : PowerMSP432.oem4f (.data:PowerMSP432_perfLevels)
                  2000a970    0000009c     main_rtos_pem4f.oem4f (.data:ti_uia_loggers_LoggerStopMode_Object__table__V)
                  2000aa0c    00000098     main_rtos_pem4f.oem4f (.data:ti_sysbios_utils_Load_Module__state__V)
                  2000aaa4    00000080     main_rtos_pem4f.oem4f (.data:ti_sysbios_knl_Swi_Module_State_0_readyQ__A)
                  2000ab24    00000080     main_rtos_pem4f.oem4f (.data:ti_sysbios_knl_Task_Module_State_0_readyQ__A)
                  2000aba4    00000078     rtsv7M4_T_le_v4SPD16_eabi.lib : write.c.obj (.data:_device)
                  2000ac1c    00000060     main_rtos_pem4f.oem4f (.data:ti_sysbios_knl_Clock_Object__table__V)
                  2000ac7c    00000050     rtsv7M4_T_le_v4SPD16_eabi.lib : write.c.obj (.data:_stream)
                  2000accc    0000004c     main_rtos_pem4f.oem4f (.data:ti_sysbios_family_arm_msp432_Timer_Object__table__V)
                  2000ad18    00000044     main_rtos_pem4f.oem4f (.data:ti_sysbios_knl_Task_Module__state__V)
                  2000ad5c    00000038     main_rtos_pem4f.oem4f (.data:ti_sysbios_gates_GateMutex_Object__table__V)
                  2000ad94    00000034     main_rtos_pem4f.oem4f (.data:ti_sysbios_family_arm_m3_Hwi_Module__state__V)
                  2000adc8    00000030     msp432p4xx_driverlib.lib : gpio.o (.data:GPIO_PORT_TO_BASE)
                  2000adf8    00000030     main_rtos_pem4f.oem4f (.data:ti_sysbios_family_arm_m3_Hwi_Object__table__V)
                  2000ae28    00000030     main_rtos_pem4f.oem4f (.data:ti_sysbios_family_arm_m3_Timer_Object__table__V)
                  2000ae58    00000030     main_rtos_pem4f.oem4f (.data:ti_sysbios_knl_Swi_Object__table__V)
                  2000ae88    0000002c     main_rtos_pem4f.oem4f (.data:ti_sysbios_knl_Clock_Module__state__V)
                  2000aeb4    00000028     drivers_MSP432P401R.aem4f : PowerMSP432.oem4f (.data:PowerMSP432_module)
                  2000aedc    00000024     main_rtos_pem4f.oem4f (.data:ti_sysbios_BIOS_Module__state__V)
                  2000af00    00000020     main_rtos_pem4f.oem4f (.data:ti_sysbios_family_arm_msp432_Timer_Module_State_0_device__A)
                  2000af20    0000001c     main_rtos_pem4f.oem4f (.data:ti_sysbios_knl_Swi_Module__state__V)
                  2000af3c    00000018     main_rtos_pem4f.oem4f (.data:ti_sysbios_heaps_HeapMem_Object__table__V)
                  2000af54    00000014     MSP_EXP432P401R.obj (.data:gpioPinConfigs)
                  2000af68    00000010     rtsv7M4_T_le_v4SPD16_eabi.lib : defs.c.obj (.data)
                  2000af78    00000010     main_rtos_pem4f.oem4f (.data:ti_sysbios_family_arm_msp432_Timer_Module_State_0_handles__A)
                  2000af88    0000000c     rtsv7M4_T_le_v4SPD16_eabi.lib : exit.c.obj (.data:$O1$$)
                  2000af94    0000000c     main_rtos_pem4f.oem4f (.data:ti_sysbios_family_arm_m3_Timer_Module__state__V)
                  2000afa0    0000000c     main_rtos_pem4f.oem4f (.data:ti_sysbios_family_arm_msp432_ClockFreqs_Module__state__V)
                  2000afac    0000000c     main_rtos_pem4f.oem4f (.data:ti_sysbios_family_arm_msp432_Timer_Module__state__V)
                  2000afb8    0000000c     main_rtos_pem4f.oem4f (.data:ti_sysbios_knl_Task_Module__root__V)
                  2000afc4    0000000c     main_rtos_pem4f.oem4f (.data:ti_uia_runtime_QueueDescriptor_Module__state__V)
                  2000afd0    0000000a     ADS1292R.obj (.data)
                  2000afda    00000002     main_rtos_pem4f.oem4f (.data:ti_sysbios_family_arm_m3_Hwi_Module_State_0_excActive__A)
                  2000afdc    00000008     rtsv7M4_T_le_v4SPD16_eabi.lib : _lock.c.obj (.data:$O1$$)
                  2000afe4    00000008     drivers_MSP432P401R.aem4f : UDMAMSP432.oem4f (.data)
                  2000afec    00000008     MSP_EXP432P401R.obj (.data:gpioCallbackFunctions)
                  2000aff4    00000008     ti.uia.runtime.aem4f : QueueDescriptor.oem4f (.data)
                  2000affc    00000008     main_rtos_pem4f.oem4f (.data:ti_sysbios_family_arm_m3_Hwi_Module__root__V)
                  2000b004    00000008     main_rtos_pem4f.oem4f (.data:ti_sysbios_gates_GateHwi_Module__root__V)
                  2000b00c    00000008     main_rtos_pem4f.oem4f (.data:ti_sysbios_gates_GateMutex_Module__root__V)
                  2000b014    00000008     main_rtos_pem4f.oem4f (.data:ti_sysbios_heaps_HeapMem_Module__root__V)
                  2000b01c    00000008     main_rtos_pem4f.oem4f (.data:ti_sysbios_knl_Clock_Module__root__V)
                  2000b024    00000008     main_rtos_pem4f.oem4f (.data:ti_sysbios_knl_Queue_Module__root__V)
                  2000b02c    00000008     main_rtos_pem4f.oem4f (.data:ti_sysbios_knl_Semaphore_Module__root__V)
                  2000b034    00000008     main_rtos_pem4f.oem4f (.data:ti_uia_loggers_LoggerStopMode_Module__root__V)
                  2000b03c    00000008     main_rtos_pem4f.oem4f (.data:xdc_runtime_Registry_Module__state__V)
                  2000b044    00000008     main_rtos_pem4f.oem4f (.data:xdc_runtime_Startup_Module__state__V)
                  2000b04c    00000008     main_rtos_pem4f.oem4f (.data:xdc_runtime_System_Module_State_0_atexitHandlers__A)
                  2000b054    00000008     main_rtos_pem4f.oem4f (.data:xdc_runtime_System_Module__state__V)
                  2000b05c    00000006     Pace_detect.obj (.data:DAC_Channel_voltage)
                  2000b062    00000006     Pace_detect.obj (.data:DAC_Channel_write)
                  2000b068    00000004     AFE4403.obj (.data)
                  2000b06c    00000004     MSP432_UART_TX.obj (.data)
                  2000b070    00000004     Pace_detect.obj (.data)
                  2000b074    00000004     drivers_MSP432P401R.aem4f : I2C.oem4f (.data)
                  2000b078    00000004                               : SPI.oem4f (.data)
                  2000b07c    00000004                               : UART.oem4f (.data)
                  2000b080    00000004     rtsv7M4_T_le_v4SPD16_eabi.lib : errno.c.obj (.data)
                  2000b084    00000004                                   : stkdepth_vars.c.obj (.data)
                  2000b088    00000004     main_rtos_pem4f.oem4f (.data:ti_sysbios_family_arm_m3_Hwi_Module_State_0_excContext__A)
                  2000b08c    00000004     main_rtos_pem4f.oem4f (.data:ti_sysbios_family_arm_m3_Hwi_Module_State_0_excStack__A)
                  2000b090    00000004     main_rtos_pem4f.oem4f (.data:ti_sysbios_family_arm_m3_TimestampProvider_Module__state__V)
                  2000b094    00000004     main_rtos_pem4f.oem4f (.data:ti_sysbios_gates_GateHwi_Object__table__V)
                  2000b098    00000004     main_rtos_pem4f.oem4f (.data:ti_sysbios_knl_Task_Module_State_0_idleTask__A)
                  2000b09c    00000004     main_rtos_pem4f.oem4f (.data:ti_sysbios_utils_Load_Module_State_0_runningTask__A)
                  2000b0a0    00000004     main_rtos_pem4f.oem4f (.data:ti_sysbios_utils_Load_Module_State_0_taskStartTime__A)
                  2000b0a4    00000004     main_rtos_pem4f.oem4f (.data:xdc_runtime_Memory_Module__state__V)
                  2000b0a8    00000002     main_rtos_pem4f.oem4f (.data:xdc_runtime_Error_Module__state__V)
                  2000b0aa    00000001     MSP432_SPI.obj (.data)
                  2000b0ab    00000001     drivers_MSP432P401R.aem4f : GPIOMSP432.oem4f (.data)

.stack     0    2000fc00    00000400     UNINITIALIZED
                  2000fc00    00000400     --HOLE--

.bootVecs 
*          0    00000000    00000008     DSECT
                  00000000    00000008     boot.aem4f : boot.oem4f (.bootVecs)

.vecs      0    20000000    00000140     UNINITIALIZED
                  20000000    00000140     main_rtos_pem4f.oem4f (.vecs)

xdc.meta   0    00000000    000000fd     COPY SECTION
                  00000000    000000fd     main_rtos_pem4f.oem4f (xdc.meta)

.binit     0    00000000    00000000     

MODULE SUMMARY

       Module                       code    ro data   rw data
       ------                       ----    -------   -------
    .\
       ADS1292R.obj                 2150    24        28084  
       MSP432_SPI.obj               1636    0         53     
       MSP432_UART_TX.obj           1192    25        45     
       AFE4403.obj                  548     424       212    
       MSP_EXP432P401R.obj          96      356       508    
       MSP432_I2C.obj               776     0         57     
       Pace_detect.obj              408     4         16     
       MSP432_UART.obj              230     0         40     
       TMP116.obj                   208     0         0      
       main.obj                     84      0         0      
       MSP432_GPIO.obj              72      0         0      
    +--+----------------------------+-------+---------+---------+
       Total:                       7400    833       29015  
                                                             
    D:\Firmware\TIDA firmware\Swaroop\TIDA - 2\TIDA-01614-Firmware\Debug\configPkg\package\cfg\
       main_rtos_pem4f.oem4f        3404    10551     14760  
    +--+----------------------------+-------+---------+---------+
       Total:                       3404    10551     14760  
                                                             
    C:/ti/tirtos_msp43x_2_20_00_06/products/msp432_driverlib_3_21_00_05/driverlib/MSP432P4xx/ccs/msp432p4xx_driverlib.lib
       pcm.o                        1214    0         0      
       dma.o                        628     0         0      
       gpio.o                       552     0         48     
       spi.o                        402     0         0      
       i2c.o                        330     0         0      
       uart.o                       328     0         0      
       cs.o                         260     0         0      
       flash.o                      156     0         0      
       rtc_c.o                      72      0         0      
       wdt_a.o                      44      0         0      
       cpu.o                        28      0         0      
    +--+----------------------------+-------+---------+---------+
       Total:                       4014    0         48     
                                                             
    C:/ti/tirtos_msp43x_2_20_00_06/products/tidrivers_msp43x_2_20_00_08/packages/ti/drivers/lib/drivers_MSP432P401R.aem4f
       UARTMSP432.oem4f             2630    81        0      
       I2CMSP432.oem4f              1378    32        0      
       PowerMSP432.oem4f            1212    0         196    
       SPIMSP432DMA.oem4f           962     40        0      
       GPIOMSP432.oem4f             620     12        49     
       RingBuf.oem4f                184     0         0      
       UDMAMSP432.oem4f             172     0         8      
       UART.oem4f                   138     36        4      
       SPI.oem4f                    134     32        4      
       I2C.oem4f                    130     16        4      
       List.oem4f                   72      0         0      
    +--+----------------------------+-------+---------+---------+
       Total:                       7632    249       265    
                                                             
    C:/ti/tirtos_msp43x_2_20_00_06/products/tidrivers_msp43x_2_20_00_08/packages/ti/drivers/lib/power_tirtos_MSP432P401R.aem4f
       PowerMSP432_tirtos.oem4f     106     0         0      
    +--+----------------------------+-------+---------+---------+
       Total:                       106     0         0      
                                                             
    C:/ti/tirtos_msp43x_2_20_00_06/products/tidrivers_msp43x_2_20_00_08/packages/ti/drivers/ports/lib/tirtosport.aem4f
       ClockP_tirtos.oem4f          148     0         0      
       SemaphoreP_tirtos.oem4f      146     0         0      
       HwiP_tirtos.oem4f            138     0         0      
    +--+----------------------------+-------+---------+---------+
       Total:                       432     0         0      
                                                             
    C:\ti\ccsv8\tools\compiler\ti-cgt-arm_18.1.2.LTS\lib\rtsv7M4_T_le_v4SPD16_eabi.lib
       e_pow.c.obj                  2496    48        0      
       fd_add_t2.asm.obj            438     0         0      
       defs.c.obj                   0       0         416    
       trgmsg.c.obj                 108     0         288    
       e_sqrt.c.obj                 344     0         0      
       fd_div_t2.asm.obj            310     0         0      
       s_scalbn.c.obj               272     0         0      
       fd_cmp_t2.asm.obj            268     0         0      
       fd_mul_t2.asm.obj            252     0         0      
       write.c.obj                  40      0         200    
       setvbuf.c.obj                220     0         0      
       fflush.c.obj                 200     0         0      
       memcpy_t2.asm.obj            156     0         0      
       fputc.c.obj                  152     0         0      
       memset_t2.asm.obj            122     0         0      
       fclose.c.obj                 116     0         0      
       getdevice.c.obj              116     0         0      
       copy_decompress_lzss.c.obj   104     0         0      
       hostlseek.c.obj              104     0         0      
       hostopen.c.obj               96      0         8      
       hostrename.c.obj             104     0         0      
       fseek.c.obj                  100     0         0      
       _io_perm.c.obj               98      0         0      
       close.c.obj                  92      0         0      
       exit.c.obj                   76      0         12     
       hostread.c.obj               88      0         0      
       hostwrite.c.obj              88      0         0      
       cpy_tbl.c.obj                76      0         0      
       fd_tou_t2.asm.obj            68      0         0      
       hostclose.c.obj              68      0         0      
       hostunlink.c.obj             68      0         0      
       u_divt2.asm.obj              64      0         0      
       strncpy.c.obj                54      0         0      
       fopen.c.obj                  52      0         0      
       i_tofd_t2.asm.obj            46      0         0      
       unlink.c.obj                 44      0         0      
       lseek.c.obj                  40      0         0      
       _lock.c.obj                  26      0         8      
       args_main.c.obj              24      0         0      
       strcmp.c.obj                 24      0         0      
       strchr.c.obj                 22      0         0      
       s_copysign.c.obj             20      0         0      
       strcpy.c.obj                 20      0         0      
       strlen.c.obj                 20      0         0      
       copy_decompress_none.c.obj   14      0         0      
       copy_zero_init.c.obj         12      0         0      
       errno.c.obj                  8       0         4      
       stkdepth_vars.c.obj          0       0         4      
       div0.asm.obj                 2       0         0      
    +--+----------------------------+-------+---------+---------+
       Total:                       7332    48        940    
                                                             
    C:\ti\tirtos_msp43x_2_20_00_06\products\bios_6_46_00_23\packages\ti\targets\arm\rtsarm\lib\auto_init.aem4f
       auto_init.oem4f              160     0         0      
    +--+----------------------------+-------+---------+---------+
       Total:                       160     0         0      
                                                             
    C:\ti\tirtos_msp43x_2_20_00_06\products\bios_6_46_00_23\packages\ti\targets\arm\rtsarm\lib\boot.aem4f
       boot.oem4f                   88      0         0      
    +--+----------------------------+-------+---------+---------+
       Total:                       88      0         0      
                                                             
    C:\ti\tirtos_msp43x_2_20_00_06\products\bios_6_46_00_23\packages\ti\targets\arm\rtsarm\lib\ti.targets.arm.rtsarm.aem4f
       System.oem4f                 1255    0         0      
       Text.oem4f                   672     0         0      
       Error.oem4f                  524     0         0      
       Core-mem.oem4f               358     0         0      
       Startup.oem4f                340     0         0      
       Core-smem.oem4f              204     0         0      
       Memory.oem4f                 176     0         0      
       Assert.oem4f                 84      0         0      
       Core-params.oem4f            70      0         0      
       Core-label.oem4f             52      0         0      
       SysStd.oem4f                 52      0         0      
       Registry.oem4f               32      0         0      
       Gate.oem4f                   28      0         0      
    +--+----------------------------+-------+---------+---------+
       Total:                       3847    0         0      
                                                             
    C:\ti\tirtos_msp43x_2_20_00_06\products\uia_2_00_06_52\packages\ti\uia\loggers\lib\release\ti.uia.loggers.aem4f
       LoggerStopMode.oem4f         552     0         0      
    +--+----------------------------+-------+---------+---------+
       Total:                       552     0         0      
                                                             
    C:\ti\tirtos_msp43x_2_20_00_06\products\uia_2_00_06_52\packages\ti\uia\runtime\lib\release\ti.uia.runtime.aem4f
       QueueDescriptor.oem4f        116     0         8      
    +--+----------------------------+-------+---------+---------+
       Total:                       116     0         8      
                                                             
    D:\Firmware\TIDA firmware\Swaroop\TIDA - 2\TIDA-01614-Firmware\src\sysbios\sysbios.aem4f
       BIOS.obj                     13984   0         0      
       m3_Hwi_asm.obj               306     0         0      
       m3_TaskSupport_asm.obj       180     0         0      
       m3_Hwi_asm_switch.obj        118     0         0      
    +--+----------------------------+-------+---------+---------+
       Total:                       14588   0         0      
                                                             
       Stack:                       0       0         1024   
       Linker Generated:            0       1101      0      
    +--+----------------------------+-------+---------+---------+
       Grand Total:                 49671   12782     46060  


LINKER GENERATED COPY TABLES

__TI_cinit_table @ 0000f478 records: 3, size/record: 8, table size: 24
	.data: load addr=0000f040, load size=00000419 bytes, run addr=2000a4e0, run size=00000bcc bytes, compression=lzss
	.bss: load addr=0000f468, load size=00000008 bytes, run addr=20000200, run size=0000a2e0 bytes, compression=zero_init
	.vecs: load addr=0000f470, load size=00000008 bytes, run addr=20000000, run size=00000140 bytes, compression=zero_init


LINKER GENERATED HANDLER TABLE

__TI_handler_table @ 0000f45c records: 3, size/record: 4, table size: 12
	index: 0, handler: __TI_decompress_lzss
	index: 1, handler: __TI_decompress_none
	index: 2, handler: __TI_zero_init


GLOBAL SYMBOLS: SORTED ALPHABETICALLY BY Name 

address   name                                                         
-------   ----                                                         
0000bf0b  ADS_CS_high                                                  
0000bf17  ADS_CS_low                                                   
0000bc85  ADS_DRDY_goes_low                                            
00001b55  ADS_PowerOn_Init                                             
0000ec51  ADS_REG                                                      
2000a430  ADS_REG_READ                                                 
0000b1f9  ADS_clock_selection                                          
0000a3bb  ADS_config_GPIO                                              
0000b7c9  ADS_disable_Respiration                                      
0000a70b  ADS_disable_start                                            
0000b7e1  ADS_enable_Respiration                                       
0000a73b  ADS_enable_start                                             
00008a49  ADS_hard_stop                                                
0000c1d3  ADS_init_resources                                           
0000e7f4  ADS_main                                                     
000018bd  ADS_main_task                                                
2000a4dc  ADS_read_done_flag                                           
00007925  ADS_read_ecg_resp_data                                       
0000aafd  ADS_register_read                                            
0000b7f9  ADS_register_write                                           
0000767f  ADS_reset                                                    
0000bf23  ADS_reset_high                                               
0000bf2f  ADS_reset_low                                                
0000c151  ADS_soft_stop                                                
0000c15b  ADS_start_conv_command                                       
0000bf3b  ADS_start_high                                               
0000bf47  ADS_start_low                                                
0000c165  ADS_stop_read_continuous                                     
0000bc95  ADS_write_command                                            
0000a121  ADS_write_register_configs                                   
0000bf53  AFE4403_disable_read                                         
0000bf5f  AFE4403_enable_read                                          
00009049  AFE4403_reg_read                                             
0000b49f  AFE4403_reg_write                                            
0000a159  AFE4403_write_register_configs                               
0000bca5  AFE_ADC_RDY_goes_low                                         
0000bf6b  AFE_CS_high                                                  
0000bf77  AFE_CS_low                                                   
0000e458  AFE_REG                                                      
20009fe0  AFE_REG_READ                                                 
0000e7e8  AFE_main                                                     
00003b19  AFE_main_task                                                
2000a4dd  AFE_read_done_flag                                           
00005e35  C$$EXIT                                                      
0000a267  C$$IO$$                                                      
0000bcb5  CLOCK_TMP_read_temperature                                   
0000bf83  CPU_cpsid                                                    
0000bf8f  CPU_cpsie                                                    
000015cd  CPU_wfi                                                      
000052e1  CS_initClockSignal                                           
0000af45  CS_setDCOCenteredFrequency                                   
0000c1db  ClockP_Params_init                                           
00008c79  ClockP_create                                                
0000ba51  ClockP_delete                                                
0000bc05  ClockP_start                                                 
0000bc05  ClockP_startFromISR                                          
0000c16f  ClockP_stop                                                  
0000c16f  ClockP_stopFromISR                                           
2000b05c  DAC_Channel_voltage                                          
2000b062  DAC_Channel_write                                            
2000afd0  DELAY_COUNT                                                  
000058d5  DMA_assignChannel                                            
0000973d  DMA_assignInterrupt                                          
0000bcc5  DMA_clearErrorStatus                                         
0000b811  DMA_clearInterruptFlag                                       
0000b829  DMA_enableChannel                                            
00009f39  DMA_enableInterrupt                                          
0000bcd5  DMA_enableModule                                             
0000bf9d  DMA_getErrorStatus                                           
0000b841  DMA_isChannelEnabled                                         
0000af69  DMA_setChannelControl                                        
00007bbd  DMA_setChannelTransfer                                       
0000bfa9  DMA_setControlBase                                           
0000bfb5  EUSCI_A_SPI_disable                                          
0000bfc1  EUSCI_A_SPI_enable                                           
00003315  EUSCI_A_SPI_getReceiveBufferAddressForDMA                    
0000348d  EUSCI_A_SPI_getTransmitBufferAddressForDMA                   
0000bfcd  EUSCI_B_SPI_disable                                          
0000bfd9  EUSCI_B_SPI_enable                                           
0000374d  EUSCI_B_SPI_getReceiveBufferAddressForDMA                    
00003c55  EUSCI_B_SPI_getTransmitBufferAddressForDMA                   
00009cf5  FlashCtl_disableReadBuffering                                
0000a3f1  FlashCtl_enableReadBuffering                                 
0000adb5  FlashCtl_setWaitState                                        
0000ecfc  GPIOMSP432_config                                            
0000b859  GPIO_clearInterruptFlag                                      
0000addd  GPIO_enableInt                                               
0000bb01  GPIO_enableInterrupt                                         
0000a76d  GPIO_getEnabledInterruptStatus                               
0000bce5  GPIO_getInterruptStatus                                      
0000909d  GPIO_hwiIntFxn                                               
00008aa5  GPIO_init                                                    
0000b21d  GPIO_interruptEdgeSelect                                     
0000ab29  GPIO_setAsInputPin                                           
0000a79d  GPIO_setAsInputPinWithPullDownResistor                       
0000a7cd  GPIO_setAsInputPinWithPullUpResistor                         
0000af8d  GPIO_setAsOutputPin                                          
00009785  GPIO_setAsPeripheralModuleFunctionInputPin                   
00009489  GPIO_setAsPeripheralModuleFunctionOutputPin                  
000090f1  GPIO_setCallback                                             
00003899  GPIO_setConfig                                               
0000bb15  GPIO_setDriveStrengthHigh                                    
0000b871  GPIO_setDriveStrengthLow                                     
0000bb29  GPIO_setOutputHighOnPin                                      
0000b889  GPIO_setOutputLowOnPin                                       
0000ae05  GUI_init_task                                                
0000e804  GUI_initialize                                               
00009a0d  HOSTclose                                                    
0000839d  HOSTlseek                                                    
000088c5  HOSTopen                                                     
00008d2d  HOSTread                                                     
00008405  HOSTrename                                                   
00009a51  HOSTunlink                                                   
00008d85  HOSTwrite                                                    
0000be79  HwiP_Params_init                                             
00008801  HwiP_create                                                  
0000ba67  HwiP_delete                                                  
00003d95  HwiP_disable                                                 
0000c271  HwiP_restore                                                 
0000729d  I2CMSP432_cancel                                             
0000853d  I2CMSP432_close                                              
0000a6d3  I2CMSP432_control                                            
0000eaf8  I2CMSP432_fxnTable                                           
000045ed  I2CMSP432_hwiIntFxn                                          
0000c179  I2CMSP432_init                                               
0000319d  I2CMSP432_open                                               
00007451  I2CMSP432_transfer                                           
0000bcf5  I2C_Params_init                                              
0000be87  I2C_clearInterruptFlag                                       
0000ec6c  I2C_config                                                   
0000ed34  I2C_defaultParams                                            
0000be95  I2C_disableInterrupt                                         
0000bfe5  I2C_disableModule                                            
0000c1e3  I2C_enableInterrupt                                          
0000bff1  I2C_enableModule                                             
0000bedb  I2C_getEnabledInterruptStatus                                
0000c251  I2C_getInterruptStatus                                       
0000a191  I2C_init                                                     
00009ef9  I2C_initMaster                                               
0000b8a1  I2C_masterIsStartSent                                        
0000c257  I2C_masterReceiveMultiByteNext                               
0000bd05  I2C_masterReceiveMultiByteStop                               
0000bd15  I2C_masterReceiveStart                                       
00009d35  I2C_masterSendMultiByteFinish                                
0000afb1  I2C_masterSendMultiByteNext                                  
0000bd25  I2C_masterSendStart                                          
0000a7fd  I2C_open                                                     
0000bea3  I2C_setMode                                                  
00003ed5  I2C_setSlaveAddress                                          
0000c183  I2C_transfer                                                 
2000a37c  Led_1                                                        
2000a468  Led_1_amb                                                    
2000a46c  Led_2                                                        
2000a470  Led_2_amb                                                    
000044cd  List_head                                                    
00005cb5  List_next                                                    
0000aed1  List_put                                                     
0000b60d  List_remove                                                  
0000e7e0  MSP432_UART_main                                             
00008ddd  MSP432_UART_main_task                                        
00006a01  MSP_ADC_I2C_write                                            
0000b8b9  MSP_ADS_DRDY_Config                                          
00002e9d  MSP_ADS_SPI_read_ecg_resp_data                               
000053c1  MSP_ADS_SPI_read_register                                    
00005ef5  MSP_ADS_SPI_write_command                                    
00005805  MSP_ADS_SPI_write_register                                   
0000b8d1  MSP_AFE_ADC_RDY_Config                                       
00005731  MSP_AFE_SPI_read                                             
00006285  MSP_AFE_SPI_write                                            
00006aa5  MSP_DAC_I2C_write                                            
0000c1eb  MSP_EXP432P401R_initGPIO                                     
0000c1f3  MSP_EXP432P401R_initGeneral                                  
0000bc17  MSP_EXP432P401R_initI2C                                      
0000b4bb  MSP_EXP432P401R_initSPI                                      
0000bc29  MSP_EXP432P401R_initUART                                     
00008671  MSP_I2C_initialize                                           
00007049  MSP_SPI_initialise                                           
000066a9  MSP_TMP_I2C_read                                             
00006335  MSP_TMP_I2C_write                                            
00005fad  MSP_UART_initialise                                          
0000afd5  MSP_UART_write                                               
0000b8e9  MSP_pace_detect_config                                       
0000b4d9  PCM_enableRudeMode                                           
0000ab55  PCM_getCoreVoltageLevel                                      
0000ad0d  PCM_getPowerMode                                             
0000bffd  PCM_getPowerState                                            
0000ae2d  PCM_gotoLPM0                                                 
00007d41  PCM_gotoLPM3                                                 
0000bd35  PCM_gotoLPM4                                                 
0000c1fb  PCM_setPowerMode                                             
0000c203  PCM_setPowerState                                            
00009345  PCM_shutdownDevice                                           
0000b4f5  Pace_detect_goes_high                                        
0000e81c  Pace_detect_task                                             
0000b627  Pacedetect_ADC_reg_write                                     
0000b641  Pacedetect_DAC_reg_write                                     
00004281  Pacedetect_main_task                                         
0000ed24  PowerMSP432_config                                           
0000b23d  PowerMSP432_getFreqs                                         
00005d75  PowerMSP432_getNumPerfLevels                                 
00002e9b  PowerMSP432_initPolicy                                       
2000aeb4  PowerMSP432_module                                           
2000a8d4  PowerMSP432_perfLevels                                       
00009f75  PowerMSP432_sleepPolicy                                      
0000ab81  PowerMSP432_updateFreqs                                      
0000c009  Power_getConstraintMask                                      
0000c015  Power_getPerformanceLevel                                    
0000bb3d  Power_idleFunc                                               
00009a95  Power_init                                                   
0000b511  Power_registerNotify                                         
0000abad  Power_releaseConstraint                                      
0000abd9  Power_setConstraint                                          
0000202d  Power_sleep                                                  
0000b25d  Power_unregisterNotify                                       
0000aff9  RTC_C_holdClock                                              
0000b01d  RTC_C_startClock                                             
0000bc3b  RingBuf_construct                                            
00009d75  RingBuf_get                                                  
0000b27d  RingBuf_peek                                                 
00009939  RingBuf_put                                                  
0000e7f0  SEM_ADS_DRDY_GOES_LOW                                        
0000e7f8  SEM_ADS_INITIALIZE                                           
0000e7e4  SEM_AFE_RDY_GOES_LOW                                         
0000e828  SEM_AFE_READ_COMPLETE                                        
0000e7fc  SEM_GUI_INITIALISE                                           
0000e800  SEM_INTERRUPT_INIT                                           
0000e818  SEM_PACE_DETECT_GOES_HIGH                                    
0000e820  SEM_PACE_MAKER_INIT                                          
0000e824  SEM_PACE_MAKER_OK                                            
0000e80c  SEM_TMP_INITIALISE                                           
0000e808  SEM_TMP_TASK                                                 
0000e7ec  SEM_UART_DATA_TO_BE_SENT                                     
UNDEFED   SHT$$INIT_ARRAY$$Base                                        
UNDEFED   SHT$$INIT_ARRAY$$Limit                                       
00008cd3  SPIMSP432DMA_close                                           
0000c25d  SPIMSP432DMA_control                                         
0000e938  SPIMSP432DMA_fxnTable                                        
0000a0ad  SPIMSP432DMA_hwiFxn                                          
0000c18d  SPIMSP432DMA_init                                            
00003021  SPIMSP432DMA_open                                            
0000427f  SPIMSP432DMA_serviceISR                                      
00008e35  SPIMSP432DMA_transfer                                        
0000b901  SPIMSP432DMA_transferCancel                                  
0000bb51  SPI_Params_init                                              
0000ec84  SPI_config                                                   
0000eb18  SPI_defaultParams                                            
0000b65b  SPI_disableModule                                            
0000b675  SPI_enableModule                                             
0000b68f  SPI_getReceiveBufferAddressForDMA                            
0000b6a9  SPI_getTransmitBufferAddressForDMA                           
0000a1c9  SPI_init                                                     
00007707  SPI_initMaster                                               
0000a66d  SPI_initSlave                                                
0000a82d  SPI_open                                                     
0000c197  SPI_transfer                                                 
0000c20b  SemaphoreP_Params_init                                       
00008e8d  SemaphoreP_create                                            
0000ba7d  SemaphoreP_delete                                            
0000bc4d  SemaphoreP_pend                                              
0000c1a1  SemaphoreP_post                                              
0000c1a1  SemaphoreP_postFromClock                                     
0000c1a1  SemaphoreP_postFromISR                                       
000086d5  Set_SPI_mode                                                 
0000c1ab  Start_Read_Data_Continuous                                   
0000e810  TMP_main                                                     
00007c3d  TMP_main_task                                                
0000e814  TMP_read                                                     
0000b29d  TMP_reg_read_temp                                            
0000b2bd  TMP_reg_write                                                
2000a4cc  Tmp_1                                                        
2000a4ce  Tmp_2                                                        
2000a4d0  Tmp_3                                                        
000075f5  UARTMSP432_close                                             
00006b49  UARTMSP432_control                                           
0000e910  UARTMSP432_fxnTable                                          
00009c71  UARTMSP432_hwiIntFxn                                         
0000c021  UARTMSP432_init                                              
00002291  UARTMSP432_open                                              
00009db5  UARTMSP432_read                                              
0000a319  UARTMSP432_readCancel                                        
000063e5  UARTMSP432_readPolling                                       
00007e39  UARTMSP432_write                                             
000092f1  UARTMSP432_writeCancel                                       
00008739  UARTMSP432_writePolling                                      
0000beb1  UARTWriteCallback                                            
0000b919  UART_Params_init                                             
0000bebf  UART_clearInterruptFlag                                      
0000ec9c  UART_config                                                  
0000e9d8  UART_defaultParams                                           
0000b041  UART_disableInterrupt                                        
0000c02d  UART_disableModule                                           
0000ba93  UART_enableInterrupt                                         
0000c039  UART_enableModule                                            
0000c263  UART_getInterruptStatus                                      
0000a201  UART_init                                                    
000070dd  UART_initModule                                              
0000a85d  UART_open                                                    
00000a01  UART_packet_format_and_send                                  
0000c269  UART_queryStatusFlags                                        
0000b065  UART_receiveData                                             
0000b089  UART_transmitData                                            
0000c1b5  UART_write                                                   
0000b2dd  UDMAMSP432_close                                             
0000ed84  UDMAMSP432_config                                            
00009df5  UDMAMSP432_init                                              
000094d5  UDMAMSP432_open                                              
4000480c  WDTCTL_SYM                                                   
0000b931  WDT_A_holdTimer                                              
0000bb65  WDT_A_startTimer                                             
00000000  __ASM__                                                      
20009ec0  __CIOBUF_                                                    
00000079  __ISA__                                                      
0000008c  __PLAT__                                                     
20010000  __STACK_END                                                  
00000400  __STACK_SIZE                                                 
000000af  __TARG__                                                     
0000f478  __TI_CINIT_Base                                              
0000f490  __TI_CINIT_Limit                                             
0000f45c  __TI_Handler_Table_Base                                      
0000f468  __TI_Handler_Table_Limit                                     
00006c95  __TI_auto_init                                               
0000a425  __TI_cleanup                                                 
2000af88  __TI_cleanup_ptr                                             
00007fa9  __TI_closefile                                               
0000846d  __TI_decompress_lzss                                         
0000becd  __TI_decompress_none                                         
00009521  __TI_doflush                                                 
2000af8c  __TI_dtors_ptr                                               
2000af90  __TI_enable_exit_profile_output                              
2000af68  __TI_ft_end                                                  
ffffffff  __TI_pprof_out_hndl                                          
ffffffff  __TI_prof_data_size                                          
ffffffff  __TI_prof_data_start                                         
0000a459  __TI_readmsg                                                 
0000f040  __TI_static_base__                                           
2000a0b0  __TI_tmpnams                                                 
0000a239  __TI_writemsg                                                
00008863  __TI_wrt_ok                                                  
0000c075  __TI_zero_init                                               
000000d5  __TRDR__                                                     
00007819  __aeabi_cdcmpeq                                              
00007819  __aeabi_cdcmple                                              
0000789f  __aeabi_cdrcmple                                             
00009b1d  __aeabi_d2uiz                                                
00002b4f  __aeabi_dadd                                                 
00004149  __aeabi_ddiv                                                 
00004b41  __aeabi_dmul                                                 
00002b45  __aeabi_dsub                                                 
0000c215  __aeabi_errno_addr                                           
0000aacf  __aeabi_i2d                                                  
0000732f  __aeabi_idiv0                                                
0000732f  __aeabi_ldiv0                                                
00007f2d  __aeabi_memclr                                               
00007f2d  __aeabi_memclr4                                              
00007f2d  __aeabi_memclr8                                              
00006e71  __aeabi_memcpy                                               
00006e71  __aeabi_memcpy4                                              
00006e71  __aeabi_memcpy8                                              
00007f2f  __aeabi_memset                                               
00007f2f  __aeabi_memset4                                              
00007f2f  __aeabi_memset8                                              
2000af74  __aeabi_stderr                                               
2000af6c  __aeabi_stdin                                                
2000af70  __aeabi_stdout                                               
00009e75  __aeabi_uidiv                                                
00009e75  __aeabi_uidivmod                                             
ffffffff  __binit__                                                    
ffffffff  __c_args__                                                   
2000fc00  __stack                                                      
0000b949  _args_main                                                   
00008ee5  _c_int00                                                     
2000aba4  _device                                                      
2000a6f4  _ftable                                                      
2000afdc  _lock                                                        
00007047  _nop                                                         
0000c045  _register_lock                                               
0000c051  _register_unlock                                             
2000ac7c  _stream                                                      
2000afe0  _unlock                                                      
00005e35  abort                                                        
ffffffff  binit                                                        
20000200  channel_2                                                    
0000c05d  clock_pacedetectEnd                                          
0000c069  clock_pacedetectStart                                        
00008b01  close                                                        
0000956d  copy_in                                                      
0000bb79  copysign                                                     
0000bb79  copysignl                                                    
2000b0aa  currentSPIMode                                               
2000a474  ecg                                                          
2000b080  errno                                                        
000097cd  exit                                                         
0000aaa1  ff_memalloc                                                  
0000b961  ff_memfree                                                   
00007dbd  fflush                                                       
0000a88d  finddevice                                                   
000074dd  fputc                                                        
0000b961  free                                                         
0000879d  fseek                                                        
00009ad9  getdevice                                                    
2000afec  gpioCallbackFunctions                                        
2000af54  gpioPinConfigs                                               
0000ed44  i2cMSP432HWAttrs                                             
2000a2f0  i2cMSP432Objects                                             
2000a478  i2c_handle                                                   
2000a3e8  i2c_params                                                   
2000a47c  i2c_rxBuffer                                                 
2000a360  i2c_transaction                                              
2000a4de  i2c_transfer_status                                          
2000a4b0  i2c_txBuffer                                                 
00004931  ldexp                                                        
00004931  ldexpl                                                       
2000a4b4  leadoff_detect                                               
0000ae55  lseek                                                        
0000ac05  main                                                         
2000b084  main_func_sp                                                 
0000aaa1  malloc                                                       
2000a43c  masterRxBuffer                                               
2000a4b8  masterSpi                                                    
2000a3d4  masterTransaction                                            
2000a448  masterTxBuffer                                               
0000b961  mem_Free                                                     
00006e71  memcpy                                                       
00007f35  memset                                                       
2000a4bc  motion                                                       
2000b06c  no_of_transmit                                               
0000be09  osi_TaskDisable                                              
0000bd99  osi_start                                                    
2000b068  p2_22                                                        
2000afd4  p2_24                                                        
2000b072  paceDetectState                                              
2000b070  paceState                                                    
0000e82c  pace_Start_clock                                             
2000a4d2  pace_detected                                                
0000e830  pace_end_clock                                               
2000a4d4  pace_height                                                  
2000a4d6  pace_rise_time                                               
2000a4d8  pace_width                                                   
2000a3f8  parmbuf                                                      
2000a4da  patient_alarmed                                              
00000041  pow                                                          
00000041  powl                                                         
000074dd  putc                                                         
0000c081  putchar                                                      
2000a454  read_data                                                    
0000acb5  remove                                                       
2000a4c0  resp                                                         
2000afd8  respiration_valid                                            
00004931  scalbn                                                       
00004931  scalbnl                                                      
00005579  setvbuf                                                      
0000e8b0  spiMSP432DMAHWAttrs                                          
2000a280  spiMSP432DMAObjects                                          
000035f5  sqrt                                                         
000035f5  sqrtl                                                        
0000baa9  strchr                                                       
0000b979  strcmp                                                       
0000bb8d  strcpy                                                       
0000bba1  strlen                                                       
0000a385  strncpy                                                      
2000aedc  ti_sysbios_BIOS_Module__state__V                             
0000b6f7  ti_sysbios_BIOS_RtsGateProxy_Handle__label__S                
0000b18d  ti_sysbios_BIOS_RtsGateProxy_Object__delete__S               
00006115  ti_sysbios_BIOS_RtsGateProxy_enter__E                        
000061cd  ti_sysbios_BIOS_RtsGateProxy_leave__E                        
0000c2a9  ti_sysbios_BIOS_RtsGateProxy_query__E                        
0000a8ed  ti_sysbios_BIOS_atExitFunc__I                                
0000b0ad  ti_sysbios_BIOS_errorRaiseHook__I                            
0000babf  ti_sysbios_BIOS_exitFunc__I                                  
0000bd69  ti_sysbios_BIOS_getCpuFreq__E                                
0000c2c1  ti_sysbios_BIOS_linkedWithIncorrectBootLibrary__E            
0000778f  ti_sysbios_BIOS_nullFunc__I                                  
0000b0d1  ti_sysbios_BIOS_registerRTSLock__I                           
0000b0f5  ti_sysbios_BIOS_removeRTSLock__I                             
0000b2fd  ti_sysbios_BIOS_rtsLock__I                                   
0000b991  ti_sysbios_BIOS_rtsUnlock__I                                 
0000bd79  ti_sysbios_BIOS_setCpuFreq__E                                
0000bd89  ti_sysbios_BIOS_setThreadType__E                             
0000a48d  ti_sysbios_BIOS_startFunc__I                                 
0000bd99  ti_sysbios_BIOS_start__E                                     
0000edb4  ti_sysbios_family_arm_m3_Hwi_E_NMI__C                        
0000edb8  ti_sysbios_family_arm_m3_Hwi_E_alreadyDefined__C             
0000edbc  ti_sysbios_family_arm_m3_Hwi_E_busFault__C                   
0000edc0  ti_sysbios_family_arm_m3_Hwi_E_debugMon__C                   
0000edc4  ti_sysbios_family_arm_m3_Hwi_E_hardFault__C                  
0000edc8  ti_sysbios_family_arm_m3_Hwi_E_memFault__C                   
0000edcc  ti_sysbios_family_arm_m3_Hwi_E_noIsr__C                      
0000edd0  ti_sysbios_family_arm_m3_Hwi_E_reserved__C                   
0000edd4  ti_sysbios_family_arm_m3_Hwi_E_svCall__C                     
0000edd8  ti_sysbios_family_arm_m3_Hwi_E_usageFault__C                 
0000b6c3  ti_sysbios_family_arm_m3_Hwi_Handle__label__S                
0000a4c1  ti_sysbios_family_arm_m3_Hwi_Instance_finalize__E            
00007171  ti_sysbios_family_arm_m3_Hwi_Instance_init__E                
0000eddc  ti_sysbios_family_arm_m3_Hwi_LD_end__C                       
0000ede0  ti_sysbios_family_arm_m3_Hwi_LM_begin__C                     
2000afda  ti_sysbios_family_arm_m3_Hwi_Module_State_0_excActive__A     
2000b088  ti_sysbios_family_arm_m3_Hwi_Module_State_0_excContext__A    
2000b08c  ti_sysbios_family_arm_m3_Hwi_Module_State_0_excStack__A      
0000ede4  ti_sysbios_family_arm_m3_Hwi_Module__diagsEnabled__C         
0000ede8  ti_sysbios_family_arm_m3_Hwi_Module__diagsIncluded__C        
0000edec  ti_sysbios_family_arm_m3_Hwi_Module__diagsMask__C            
0000e456  ti_sysbios_family_arm_m3_Hwi_Module__id__C                   
0000ec6a  ti_sysbios_family_arm_m3_Hwi_Module__loggerDefined__C        
0000edf0  ti_sysbios_family_arm_m3_Hwi_Module__loggerFxn1__C           
0000edf4  ti_sysbios_family_arm_m3_Hwi_Module__loggerFxn8__C           
0000edf8  ti_sysbios_family_arm_m3_Hwi_Module__loggerObj__C            
2000affc  ti_sysbios_family_arm_m3_Hwi_Module__root__V                 
0000b9a9  ti_sysbios_family_arm_m3_Hwi_Module__startupDone__F          
0000b9a9  ti_sysbios_family_arm_m3_Hwi_Module__startupDone__S          
2000ad94  ti_sysbios_family_arm_m3_Hwi_Module__state__V                
00009399  ti_sysbios_family_arm_m3_Hwi_Module_startup__E               
0000edfc  ti_sysbios_family_arm_m3_Hwi_NUM_INTERRUPTS__C               
0000eb38  ti_sysbios_family_arm_m3_Hwi_Object__DESC__C                 
0000e8e0  ti_sysbios_family_arm_m3_Hwi_Object__PARAMS__C               
0000ee00  ti_sysbios_family_arm_m3_Hwi_Object__count__C                
0000b52d  ti_sysbios_family_arm_m3_Hwi_Object__destruct__S             
0000bbb5  ti_sysbios_family_arm_m3_Hwi_Object__get__S                  
2000adf8  ti_sysbios_family_arm_m3_Hwi_Object__table__V                
0000c08d  ti_sysbios_family_arm_m3_Hwi_Params__init__S                 
0000ee04  ti_sysbios_family_arm_m3_Hwi_ccr__C                          
00008f3d  ti_sysbios_family_arm_m3_Hwi_construct                       
00006545  ti_sysbios_family_arm_m3_Hwi_destruct                        
0000c099  ti_sysbios_family_arm_m3_Hwi_disableFxn__E                   
00009819  ti_sysbios_family_arm_m3_Hwi_disableInterrupt__E             
00003ed9  ti_sysbios_family_arm_m3_Hwi_dispatchC__I                    
20009d80  ti_sysbios_family_arm_m3_Hwi_dispatchTable                   
00005109  ti_sysbios_family_arm_m3_Hwi_dispatch__I                     
0000c239  ti_sysbios_family_arm_m3_Hwi_doSwiRestore__I                 
0000b119  ti_sysbios_family_arm_m3_Hwi_doTaskRestore__I                
00009861  ti_sysbios_family_arm_m3_Hwi_enableInterrupt__E              
00003319  ti_sysbios_family_arm_m3_Hwi_excBusFault__I                  
00005bf9  ti_sysbios_family_arm_m3_Hwi_excDebugMon__I                  
00000e51  ti_sysbios_family_arm_m3_Hwi_excDumpRegs__I                  
0000b31d  ti_sysbios_family_arm_m3_Hwi_excHandlerAsm__I                
0000ee08  ti_sysbios_family_arm_m3_Hwi_excHandlerFunc__C               
00002949  ti_sysbios_family_arm_m3_Hwi_excHandlerMax__I                
0000b341  ti_sysbios_family_arm_m3_Hwi_excHandler__I                   
00005cb9  ti_sysbios_family_arm_m3_Hwi_excHardFault__I                 
0000ed8c  ti_sysbios_family_arm_m3_Hwi_excHookFuncs__A                 
0000ee0c  ti_sysbios_family_arm_m3_Hwi_excHookFuncs__C                 
00003751  ti_sysbios_family_arm_m3_Hwi_excMemFault__I                  
0000a4f9  ti_sysbios_family_arm_m3_Hwi_excNmi__I                       
0000a2a9  ti_sysbios_family_arm_m3_Hwi_excNoIsr__I                     
000098a9  ti_sysbios_family_arm_m3_Hwi_excReserved__I                  
00009fb1  ti_sysbios_family_arm_m3_Hwi_excSvCall__I                    
00003491  ti_sysbios_family_arm_m3_Hwi_excUsageFault__I                
00009b61  ti_sysbios_family_arm_m3_Hwi_getStackInfo__E                 
00007209  ti_sysbios_family_arm_m3_Hwi_initNVIC__E                     
00008f95  ti_sysbios_family_arm_m3_Hwi_initStacks__E                   
0000ee10  ti_sysbios_family_arm_m3_Hwi_nullIsrFunc__C                  
e000e000  ti_sysbios_family_arm_m3_Hwi_nvic                            
0000aef7  ti_sysbios_family_arm_m3_Hwi_pendSV__I                       
00007a31  ti_sysbios_family_arm_m3_Hwi_postInit__I                     
0000ee14  ti_sysbios_family_arm_m3_Hwi_priGroup__C                     
20000000  ti_sysbios_family_arm_m3_Hwi_ramVectors                      
00000000  ti_sysbios_family_arm_m3_Hwi_resetVectors                    
0000c271  ti_sysbios_family_arm_m3_Hwi_restoreFxn__E                   
0000af1b  ti_sysbios_family_arm_m3_Hwi_return                          
0000c241  ti_sysbios_family_arm_m3_Hwi_startup__E                      
0000bbc9  ti_sysbios_family_arm_m3_Hwi_switchFromBootStack__E          
00006755  ti_sysbios_family_arm_m3_TaskSupport_Module__startupDone__S  
00007569  ti_sysbios_family_arm_m3_TaskSupport_buildTaskStack          
0000c0a9  ti_sysbios_family_arm_m3_TaskSupport_checkStack__E           
0000bda9  ti_sysbios_family_arm_m3_TaskSupport_glue                    
0000a921  ti_sysbios_family_arm_m3_TaskSupport_start__E                
0000b9c1  ti_sysbios_family_arm_m3_TaskSupport_swap__E                 
0000ee18  ti_sysbios_family_arm_m3_Timer_E_cannotSupport__C            
0000edb2  ti_sysbios_family_arm_m3_Timer_Module__id__C                 
2000af94  ti_sysbios_family_arm_m3_Timer_Module__state__V              
00009eb9  ti_sysbios_family_arm_m3_Timer_Module_startup__E             
2000ae28  ti_sysbios_family_arm_m3_Timer_Object__table__V              
000098f1  ti_sysbios_family_arm_m3_Timer_initDevice__I                 
0000a531  ti_sysbios_family_arm_m3_Timer_periodicStub__I               
00008ff1  ti_sysbios_family_arm_m3_Timer_setPeriod__E                  
00009199  ti_sysbios_family_arm_m3_Timer_start__E                      
0000ee1c  ti_sysbios_family_arm_m3_Timer_startupNeeded__C              
0000b141  ti_sysbios_family_arm_m3_Timer_startup__E                    
2000b090  ti_sysbios_family_arm_m3_TimestampProvider_Module__state__V  
0000b361  ti_sysbios_family_arm_m3_TimestampProvider_Module_startup__E 
0000f00c  ti_sysbios_family_arm_m3_TimestampProvider_configTimer__C    
00008929  ti_sysbios_family_arm_m3_TimestampProvider_get32__E          
00008179  ti_sysbios_family_arm_m3_TimestampProvider_get64__E          
0000bd69  ti_sysbios_family_arm_m3_TimestampProvider_getFreq__E        
0000c2c9  ti_sysbios_family_arm_m3_TimestampProvider_rolloverFunc__E   
0000c0b9  ti_sysbios_family_arm_m3_TimestampProvider_startTimer__E     
2000afa0  ti_sysbios_family_arm_msp432_ClockFreqs_Module__state__V     
0000b169  ti_sysbios_family_arm_msp432_ClockFreqs_setFrequency__E      
2000af00  ti_sysbios_family_arm_msp432_Timer_Module_State_0_device__A  
2000af78  ti_sysbios_family_arm_msp432_Timer_Module_State_0_handles__A 
0000b9d9  ti_sysbios_family_arm_msp432_Timer_Module__startupDone__F    
0000b9d9  ti_sysbios_family_arm_msp432_Timer_Module__startupDone__S    
2000afac  ti_sysbios_family_arm_msp432_Timer_Module__state__V          
00007791  ti_sysbios_family_arm_msp432_Timer_Module_startup__E         
2000accc  ti_sysbios_family_arm_msp432_Timer_Object__table__V          
0000c0c9  ti_sysbios_family_arm_msp432_Timer_getMaxTicks__E            
000091f1  ti_sysbios_family_arm_msp432_Timer_initDevice__I             
0000ee20  ti_sysbios_family_arm_msp432_Timer_numTimerDevices__C        
00006809  ti_sysbios_family_arm_msp432_Timer_periodicStub__E           
0000ee24  ti_sysbios_family_arm_msp432_Timer_startupNeeded__C          
00007cc1  ti_sysbios_family_arm_msp432_Timer_startup__E                
00009249  ti_sysbios_family_arm_msp432_init_Boot_configureClocksHigh   
0000bdb9  ti_sysbios_family_arm_msp432_init_Boot_disableWatchdog       
0000beff  ti_sysbios_family_arm_msp432_init_Boot_init__I               
0000b481  ti_sysbios_family_xxx_Hwi_switchAndRunFunc                   
0000b6dd  ti_sysbios_gates_GateHwi_Handle__label__S                    
0000c2d1  ti_sysbios_gates_GateHwi_Instance_init__E                    
0000ea20  ti_sysbios_gates_GateHwi_Module__FXNS__C                     
2000b004  ti_sysbios_gates_GateHwi_Module__root__V                     
0000eb58  ti_sysbios_gates_GateHwi_Object__DESC__C                     
0000ecb4  ti_sysbios_gates_GateHwi_Object__PARAMS__C                   
0000a951  ti_sysbios_gates_GateHwi_Object__create__S                   
0000b381  ti_sysbios_gates_GateHwi_Object__delete__S                   
2000b094  ti_sysbios_gates_GateHwi_Object__table__V                    
0000c0d9  ti_sysbios_gates_GateHwi_enter__E                            
0000c279  ti_sysbios_gates_GateHwi_leave__E                            
0000c2a1  ti_sysbios_gates_GateHwi_query__E                            
0000ee28  ti_sysbios_gates_GateMutex_A_badContext__C                   
0000b6f7  ti_sysbios_gates_GateMutex_Handle__label__S                  
0000ee2c  ti_sysbios_gates_GateMutex_Instance_State_sem__O             
0000bdc9  ti_sysbios_gates_GateMutex_Instance_finalize__E              
0000b549  ti_sysbios_gates_GateMutex_Instance_init__E                  
0000ea44  ti_sysbios_gates_GateMutex_Module__FXNS__C                   
0000ee30  ti_sysbios_gates_GateMutex_Module__diagsEnabled__C           
0000ee34  ti_sysbios_gates_GateMutex_Module__diagsIncluded__C          
0000ee38  ti_sysbios_gates_GateMutex_Module__diagsMask__C              
0000f00e  ti_sysbios_gates_GateMutex_Module__id__C                     
2000b00c  ti_sysbios_gates_GateMutex_Module__root__V                   
0000eb78  ti_sysbios_gates_GateMutex_Object__DESC__C                   
0000eccc  ti_sysbios_gates_GateMutex_Object__PARAMS__C                 
0000a981  ti_sysbios_gates_GateMutex_Object__create__S                 
0000b18d  ti_sysbios_gates_GateMutex_Object__delete__S                 
2000ad5c  ti_sysbios_gates_GateMutex_Object__table__V                  
00006119  ti_sysbios_gates_GateMutex_enter__E                          
0000b9f1  ti_sysbios_gates_GateMutex_leave__E                          
0000c2a9  ti_sysbios_gates_GateMutex_query__E                          
0000ee3c  ti_sysbios_hal_Hwi_E_stackOverflow__C                        
0000b6c3  ti_sysbios_hal_Hwi_HwiProxy_Handle__label__S                 
0000b9a9  ti_sysbios_hal_Hwi_HwiProxy_Module__startupDone__S           
0000c08d  ti_sysbios_hal_Hwi_HwiProxy_Params__init__S                  
00009819  ti_sysbios_hal_Hwi_HwiProxy_disableInterrupt__E              
0000c099  ti_sysbios_hal_Hwi_HwiProxy_disable__E                       
00009861  ti_sysbios_hal_Hwi_HwiProxy_enableInterrupt__E               
00009b61  ti_sysbios_hal_Hwi_HwiProxy_getStackInfo__E                  
0000c271  ti_sysbios_hal_Hwi_HwiProxy_restore__E                       
0000c241  ti_sysbios_hal_Hwi_HwiProxy_startup__E                       
0000bbc9  ti_sysbios_hal_Hwi_HwiProxy_switchFromBootStack__E           
0000f010  ti_sysbios_hal_Hwi_Module__id__C                             
0000bc61  ti_sysbios_hal_Hwi_Module_startup__E                         
0000a569  ti_sysbios_hal_Hwi_checkStack                                
00009819  ti_sysbios_hal_Hwi_disableInterrupt__E                       
00009861  ti_sysbios_hal_Hwi_enableInterrupt__E                        
00009b61  ti_sysbios_hal_Hwi_getStackInfo__E                           
0000a6a1  ti_sysbios_hal_Hwi_initStack                                 
0000c241  ti_sysbios_hal_Hwi_startup__E                                
0000bbc9  ti_sysbios_hal_Hwi_switchFromBootStack__E                    
0000ee40  ti_sysbios_heaps_HeapMem_A_align__C                          
0000ee44  ti_sysbios_heaps_HeapMem_A_heapSize__C                       
0000ee48  ti_sysbios_heaps_HeapMem_A_invalidFree__C                    
0000ee4c  ti_sysbios_heaps_HeapMem_A_zeroBlock__C                      
0000ee50  ti_sysbios_heaps_HeapMem_E_memory__C                         
0000b711  ti_sysbios_heaps_HeapMem_Handle__label__S                    
20008b60  ti_sysbios_heaps_HeapMem_Instance_State_0_buf__A             
00003c59  ti_sysbios_heaps_HeapMem_Instance_init__E                    
0000b6f7  ti_sysbios_heaps_HeapMem_Module_GateProxy_Handle__label__S   
0000b18d  ti_sysbios_heaps_HeapMem_Module_GateProxy_Object__delete__S  
00006805  ti_sysbios_heaps_HeapMem_Module_GateProxy_enter__E           
00006bed  ti_sysbios_heaps_HeapMem_Module_GateProxy_leave__E           
0000c2a9  ti_sysbios_heaps_HeapMem_Module_GateProxy_query__E           
0000e960  ti_sysbios_heaps_HeapMem_Module__FXNS__C                     
0000ee54  ti_sysbios_heaps_HeapMem_Module__diagsEnabled__C             
0000ee58  ti_sysbios_heaps_HeapMem_Module__diagsIncluded__C            
0000ee5c  ti_sysbios_heaps_HeapMem_Module__diagsMask__C                
0000ee60  ti_sysbios_heaps_HeapMem_Module__gateObj__C                  
0000f012  ti_sysbios_heaps_HeapMem_Module__id__C                       
2000b014  ti_sysbios_heaps_HeapMem_Module__root__V                     
0000eb98  ti_sysbios_heaps_HeapMem_Object__DESC__C                     
0000ea68  ti_sysbios_heaps_HeapMem_Object__PARAMS__C                   
0000ee64  ti_sysbios_heaps_HeapMem_Object__count__C                    
0000a9b1  ti_sysbios_heaps_HeapMem_Object__create__S                   
0000b3a1  ti_sysbios_heaps_HeapMem_Object__delete__S                   
0000bbdd  ti_sysbios_heaps_HeapMem_Object__get__S                      
2000af3c  ti_sysbios_heaps_HeapMem_Object__table__V                    
000024f1  ti_sysbios_heaps_HeapMem_alloc__E                            
00001dc1  ti_sysbios_heaps_HeapMem_free__E                             
000095b9  ti_sysbios_heaps_HeapMem_getStats__E                         
00009ff1  ti_sysbios_heaps_HeapMem_init__I                             
0000c281  ti_sysbios_heaps_HeapMem_isBlocking__E                       
0000ee68  ti_sysbios_heaps_HeapMem_reqAlign__C                         
0000ee6c  ti_sysbios_knl_Clock_A_badThreadType__C                      
00006bf1  ti_sysbios_knl_Clock_Instance_finalize__E                    
000043b1  ti_sysbios_knl_Clock_Instance_init__E                        
0000ee70  ti_sysbios_knl_Clock_LM_begin__C                             
0000ee74  ti_sysbios_knl_Clock_LM_tick__C                              
0000ee78  ti_sysbios_knl_Clock_LW_delayed__C                           
0000ee7c  ti_sysbios_knl_Clock_Module_State_clockQ__O                  
0000ee80  ti_sysbios_knl_Clock_Module__diagsEnabled__C                 
0000ee84  ti_sysbios_knl_Clock_Module__diagsIncluded__C                
0000ee88  ti_sysbios_knl_Clock_Module__diagsMask__C                    
0000f014  ti_sysbios_knl_Clock_Module__id__C                           
0000f016  ti_sysbios_knl_Clock_Module__loggerDefined__C                
0000ee8c  ti_sysbios_knl_Clock_Module__loggerFxn1__C                   
0000ee90  ti_sysbios_knl_Clock_Module__loggerFxn2__C                   
0000ee94  ti_sysbios_knl_Clock_Module__loggerObj__C                    
2000b01c  ti_sysbios_knl_Clock_Module__root__V                         
2000ae88  ti_sysbios_knl_Clock_Module__state__V                        
0000b1b1  ti_sysbios_knl_Clock_Module_startup__E                       
0000ebb8  ti_sysbios_knl_Clock_Object__DESC__C                         
0000ea8c  ti_sysbios_knl_Clock_Object__PARAMS__C                       
0000b3c1  ti_sysbios_knl_Clock_Object__destruct__S                     
2000ac1c  ti_sysbios_knl_Clock_Object__table__V                        
0000c0e5  ti_sysbios_knl_Clock_Params__init__S                         
0000b9d9  ti_sysbios_knl_Clock_TimerProxy_Module__startupDone__S       
00006f0d  ti_sysbios_knl_Clock_TimerProxy_getMaxTicks__E               
00007cc1  ti_sysbios_knl_Clock_TimerProxy_startup__E                   
0000a59d  ti_sysbios_knl_Clock_construct                               
00007205  ti_sysbios_knl_Clock_destruct                                
0000ac31  ti_sysbios_knl_Clock_doTick__I                               
00008989  ti_sysbios_knl_Clock_logTick__E                              
0000c2b1  ti_sysbios_knl_Clock_setTimeout__E                           
00008091  ti_sysbios_knl_Clock_start__E                                
0000c289  ti_sysbios_knl_Clock_stop__E                                 
00003d99  ti_sysbios_knl_Clock_workFunc__E                             
0000ed60  ti_sysbios_knl_Idle_funcList__A                              
0000ed94  ti_sysbios_knl_Idle_funcList__C                              
0000bee1  ti_sysbios_knl_Idle_loop__E                                  
0000b3e1  ti_sysbios_knl_Idle_run__E                                   
0000c291  ti_sysbios_knl_Queue_Instance_init__E                        
2000b024  ti_sysbios_knl_Queue_Module__root__V                         
0000ebd8  ti_sysbios_knl_Queue_Object__DESC__C                         
0000ece4  ti_sysbios_knl_Queue_Object__PARAMS__C                       
0000b565  ti_sysbios_knl_Queue_Object__destruct__S                     
0000c0f1  ti_sysbios_knl_Queue_Object__get__S                          
0000ac5d  ti_sysbios_knl_Queue_construct                               
00007a2d  ti_sysbios_knl_Queue_destruct                                
0000bef1  ti_sysbios_knl_Queue_empty__E                                
0000ee98  ti_sysbios_knl_Semaphore_A_badContext__C                     
0000ee9c  ti_sysbios_knl_Semaphore_A_noEvents__C                       
0000eea0  ti_sysbios_knl_Semaphore_A_overflow__C                       
0000eea4  ti_sysbios_knl_Semaphore_A_pendTaskDisabled__C               
0000eea8  ti_sysbios_knl_Semaphore_Instance_State_pendQ__O             
0000bdd9  ti_sysbios_knl_Semaphore_Instance_finalize__E                
00006f11  ti_sysbios_knl_Semaphore_Instance_init__E                    
0000eeac  ti_sysbios_knl_Semaphore_LM_pend__C                          
0000eeb0  ti_sysbios_knl_Semaphore_LM_post__C                          
0000eeb4  ti_sysbios_knl_Semaphore_Module__diagsEnabled__C             
0000eeb8  ti_sysbios_knl_Semaphore_Module__diagsIncluded__C            
0000eebc  ti_sysbios_knl_Semaphore_Module__diagsMask__C                
0000f018  ti_sysbios_knl_Semaphore_Module__id__C                       
0000f01a  ti_sysbios_knl_Semaphore_Module__loggerDefined__C            
0000eec0  ti_sysbios_knl_Semaphore_Module__loggerFxn2__C               
0000eec4  ti_sysbios_knl_Semaphore_Module__loggerFxn4__C               
0000eec8  ti_sysbios_knl_Semaphore_Module__loggerObj__C                
2000b02c  ti_sysbios_knl_Semaphore_Module__root__V                     
0000ebf8  ti_sysbios_knl_Semaphore_Object__DESC__C                     
0000eab0  ti_sysbios_knl_Semaphore_Object__PARAMS__C                   
0000b401  ti_sysbios_knl_Semaphore_Object__destruct__S                 
2000a7e4  ti_sysbios_knl_Semaphore_Object__table__V                    
0000c0fd  ti_sysbios_knl_Semaphore_Params__init__S                     
0000a9e1  ti_sysbios_knl_Semaphore_construct                           
00007cbd  ti_sysbios_knl_Semaphore_destruct                            
0000a6d9  ti_sysbios_knl_Semaphore_pendTimeout__I                      
000015d1  ti_sysbios_knl_Semaphore_pend__E                             
000039d9  ti_sysbios_knl_Semaphore_post__E                             
0000b72b  ti_sysbios_knl_Swi_Handle__label__S                          
0000eecc  ti_sysbios_knl_Swi_LD_end__C                                 
0000eed0  ti_sysbios_knl_Swi_LM_begin__C                               
0000eed4  ti_sysbios_knl_Swi_LM_post__C                                
2000aaa4  ti_sysbios_knl_Swi_Module_State_0_readyQ__A                  
0000eed8  ti_sysbios_knl_Swi_Module__diagsEnabled__C                   
0000eedc  ti_sysbios_knl_Swi_Module__diagsIncluded__C                  
0000eee0  ti_sysbios_knl_Swi_Module__diagsMask__C                      
0000f01c  ti_sysbios_knl_Swi_Module__id__C                             
0000f01e  ti_sysbios_knl_Swi_Module__loggerDefined__C                  
0000eee4  ti_sysbios_knl_Swi_Module__loggerFxn1__C                     
0000eee8  ti_sysbios_knl_Swi_Module__loggerFxn4__C                     
0000eeec  ti_sysbios_knl_Swi_Module__loggerObj__C                      
2000af20  ti_sysbios_knl_Swi_Module__state__V                          
0000ae81  ti_sysbios_knl_Swi_Module_startup__E                         
0000eef0  ti_sysbios_knl_Swi_Object__count__C                          
0000bbf1  ti_sysbios_knl_Swi_Object__get__S                            
2000ae58  ti_sysbios_knl_Swi_Object__table__V                          
0000bde9  ti_sysbios_knl_Swi_disable__E                                
00006759  ti_sysbios_knl_Swi_post__E                                   
00008259  ti_sysbios_knl_Swi_restoreHwi__E                             
0000a031  ti_sysbios_knl_Swi_restore__E                                
00009609  ti_sysbios_knl_Swi_runLoop__I                                
000044d1  ti_sysbios_knl_Swi_run__I                                    
00008b61  ti_sysbios_knl_Swi_schedule__I                               
0000a071  ti_sysbios_knl_Swi_startup__E                                
0000eef4  ti_sysbios_knl_Task_A_badTimeout__C                          
0000eef8  ti_sysbios_knl_Task_A_sleepTaskDisabled__C                   
0000eefc  ti_sysbios_knl_Task_E_spOutOfBounds__C                       
0000ef00  ti_sysbios_knl_Task_E_stackOverflow__C                       
0000b745  ti_sysbios_knl_Task_Handle__label__S                         
20006f60  ti_sysbios_knl_Task_Instance_State_0_stack__A                
20007360  ti_sysbios_knl_Task_Instance_State_1_stack__A                
20007b60  ti_sysbios_knl_Task_Instance_State_2_stack__A                
20007f60  ti_sysbios_knl_Task_Instance_State_3_stack__A                
20008160  ti_sysbios_knl_Task_Instance_State_4_stack__A                
20008560  ti_sysbios_knl_Task_Instance_State_5_stack__A                
20008960  ti_sysbios_knl_Task_Instance_State_6_stack__A                
0000ef04  ti_sysbios_knl_Task_LD_block__C                              
0000ef08  ti_sysbios_knl_Task_LD_exit__C                               
0000ef0c  ti_sysbios_knl_Task_LD_ready__C                              
0000ef10  ti_sysbios_knl_Task_LM_sleep__C                              
0000ef14  ti_sysbios_knl_Task_LM_switch__C                             
0000ef18  ti_sysbios_knl_Task_LM_yield__C                              
2000b098  ti_sysbios_knl_Task_Module_State_0_idleTask__A               
2000ab24  ti_sysbios_knl_Task_Module_State_0_readyQ__A                 
0000ef1c  ti_sysbios_knl_Task_Module_State_inactiveQ__O                
0000ef20  ti_sysbios_knl_Task_Module__diagsEnabled__C                  
0000ef24  ti_sysbios_knl_Task_Module__diagsIncluded__C                 
0000ef28  ti_sysbios_knl_Task_Module__diagsMask__C                     
0000f020  ti_sysbios_knl_Task_Module__id__C                            
0000f022  ti_sysbios_knl_Task_Module__loggerDefined__C                 
0000ef2c  ti_sysbios_knl_Task_Module__loggerFxn2__C                    
0000ef30  ti_sysbios_knl_Task_Module__loggerFxn4__C                    
0000ef34  ti_sysbios_knl_Task_Module__loggerObj__C                     
2000afb8  ti_sysbios_knl_Task_Module__root__V                          
2000ad18  ti_sysbios_knl_Task_Module__state__V                         
00008bc1  ti_sysbios_knl_Task_Module_startup__E                        
0000ef38  ti_sysbios_knl_Task_Object__count__C                         
0000bdf9  ti_sysbios_knl_Task_Object__get__S                           
2000a4e0  ti_sysbios_knl_Task_Object__table__V                         
00006755  ti_sysbios_knl_Task_SupportProxy_Module__startupDone__S      
0000c0a9  ti_sysbios_knl_Task_SupportProxy_checkStack__E               
0000a921  ti_sysbios_knl_Task_SupportProxy_start__E                    
0000b9c1  ti_sysbios_knl_Task_SupportProxy_swap__E                     
0000ef3c  ti_sysbios_knl_Task_allBlockedFunc__C                        
00009659  ti_sysbios_knl_Task_allBlockedFunction__I                    
000068b1  ti_sysbios_knl_Task_blockI__E                                
000061d1  ti_sysbios_knl_Task_checkStacks__E                           
0000be09  ti_sysbios_knl_Task_disable__E                               
0000b581  ti_sysbios_knl_Task_enter__I                                 
00005b39  ti_sysbios_knl_Task_exit__E                                  
0000ef40  ti_sysbios_knl_Task_numConstructedTasks__C                   
00006959  ti_sysbios_knl_Task_postInit__I                              
0000ac89  ti_sysbios_knl_Task_restore__E                               
000059a1  ti_sysbios_knl_Task_schedule__I                              
0000b761  ti_sysbios_knl_Task_sleepTimeout__I                          
00002741  ti_sysbios_knl_Task_sleep__E                                 
00005d79  ti_sysbios_knl_Task_startCore__E                             
0000c2b9  ti_sysbios_knl_Task_startup__E                               
0000b9cd  ti_sysbios_knl_Task_swapReturn                               
00007331  ti_sysbios_knl_Task_unblockI__E                              
00006549  ti_sysbios_knl_Task_yield__E                                 
0000ef44  ti_sysbios_utils_Load_LS_cpuLoad__C                          
2000b09c  ti_sysbios_utils_Load_Module_State_0_runningTask__A          
2000b0a0  ti_sysbios_utils_Load_Module_State_0_taskStartTime__A        
0000ef48  ti_sysbios_utils_Load_Module__diagsEnabled__C                
0000ef4c  ti_sysbios_utils_Load_Module__diagsIncluded__C               
0000ef50  ti_sysbios_utils_Load_Module__diagsMask__C                   
0000f024  ti_sysbios_utils_Load_Module__id__C                          
0000f026  ti_sysbios_utils_Load_Module__loggerDefined__C               
0000ef54  ti_sysbios_utils_Load_Module__loggerFxn1__C                  
0000ef58  ti_sysbios_utils_Load_Module__loggerObj__C                   
2000aa0c  ti_sysbios_utils_Load_Module__state__V                       
000065f9  ti_sysbios_utils_Load_idleFxn__E                             
000089e9  ti_sysbios_utils_Load_logCPULoad__I                          
0000ef5c  ti_sysbios_utils_Load_postUpdate__C                          
0000aa11  ti_sysbios_utils_Load_updateCurrentThreadTime__E             
0000f028  ti_sysbios_utils_Load_updateInIdle__C                        
00005e39  ti_sysbios_utils_Load_updateLoads__E                         
00005e39  ti_sysbios_utils_Load_update__E                              
0000ef60  ti_sysbios_utils_Load_windowInMs__C                          
0000b77b  ti_uia_loggers_LoggerStopMode_Handle__label__S               
2000a380  ti_uia_loggers_LoggerStopMode_Instance_State_0_hdr__A        
20009b80  ti_uia_loggers_LoggerStopMode_Instance_State_0_packetArray__A
2000a400  ti_uia_loggers_LoggerStopMode_Instance_State_1_hdr__A        
20009380  ti_uia_loggers_LoggerStopMode_Instance_State_1_packetArray__A
2000a480  ti_uia_loggers_LoggerStopMode_Instance_State_2_hdr__A        
20009780  ti_uia_loggers_LoggerStopMode_Instance_State_2_packetArray__A
0000b59d  ti_uia_loggers_LoggerStopMode_Instance_init__E               
0000e780  ti_uia_loggers_LoggerStopMode_Module__FXNS__C                
0000ef64  ti_uia_loggers_LoggerStopMode_Module__diagsEnabled__C        
0000ef68  ti_uia_loggers_LoggerStopMode_Module__diagsIncluded__C       
0000ef6c  ti_uia_loggers_LoggerStopMode_Module__diagsMask__C           
0000f02a  ti_uia_loggers_LoggerStopMode_Module__id__C                  
2000b034  ti_uia_loggers_LoggerStopMode_Module__root__V                
000096a5  ti_uia_loggers_LoggerStopMode_Module_startup__E              
0000ec18  ti_uia_loggers_LoggerStopMode_Object__DESC__C                
0000e988  ti_uia_loggers_LoggerStopMode_Object__PARAMS__C              
0000ef70  ti_uia_loggers_LoggerStopMode_Object__count__C               
0000aa41  ti_uia_loggers_LoggerStopMode_Object__create__S              
0000b421  ti_uia_loggers_LoggerStopMode_Object__delete__S              
0000be19  ti_uia_loggers_LoggerStopMode_Object__get__S                 
2000a970  ti_uia_loggers_LoggerStopMode_Object__table__V               
0000bad5  ti_uia_loggers_LoggerStopMode_disable__E                     
0000baeb  ti_uia_loggers_LoggerStopMode_enable__E                      
000085a3  ti_uia_loggers_LoggerStopMode_flush__E                       
00008925  ti_uia_loggers_LoggerStopMode_getContents__E                 
00008b5d  ti_uia_loggers_LoggerStopMode_getFilterLevel__E              
00008bbd  ti_uia_loggers_LoggerStopMode_getInstanceId__E               
00008fed  ti_uia_loggers_LoggerStopMode_getMaxLength__E                
000091ed  ti_uia_loggers_LoggerStopMode_getPriority__E                 
00009245  ti_uia_loggers_LoggerStopMode_getTransferType__E             
00009ba5  ti_uia_loggers_LoggerStopMode_initBuffer__I                  
000073c1  ti_uia_loggers_LoggerStopMode_initQueueDescriptor__E         
0000be29  ti_uia_loggers_LoggerStopMode_isEmpty__E                     
0000f02c  ti_uia_loggers_LoggerStopMode_isTimestampEnabled__C          
0000a5d1  ti_uia_loggers_LoggerStopMode_reset__E                       
00007bbb  ti_uia_loggers_LoggerStopMode_setFilterLevel__E              
00007fa7  ti_uia_loggers_LoggerStopMode_setPriority__E                 
00005655  ti_uia_loggers_LoggerStopMode_write0__E                      
000051f5  ti_uia_loggers_LoggerStopMode_write1__E                      
00005019  ti_uia_loggers_LoggerStopMode_write2__E                      
00004c3d  ti_uia_loggers_LoggerStopMode_write4__E                      
0000481d  ti_uia_loggers_LoggerStopMode_write8__E                      
00004011  ti_uia_loggers_LoggerStopMode_writeMemoryRange__E            
0000ef74  ti_uia_runtime_ILoggerSnapshot_Interface__BASE__C            
0000ef78  ti_uia_runtime_IUIATransfer_Interface__BASE__C               
2000afc4  ti_uia_runtime_QueueDescriptor_Module__state__V              
00008105  ti_uia_runtime_QueueDescriptor_addToList__E                  
2000aff4  ti_uia_runtime_QueueDescriptor_gPtrToFirstDescriptor         
2000aff8  ti_uia_runtime_QueueDescriptor_gUpdateCount                  
2000a4c4  transferOK                                                   
2000a4df  tx_size                                                      
2000a4c8  uart                                                         
0000e700  uartMSP432Baudrates                                          
0000ead4  uartMSP432HWAttrs                                            
2000a150  uartMSP432Objects                                            
20009360  uartMSP432RingBuffer                                         
2000a3b0  uartParams                                                   
2000a338  uart_tx_buffer                                               
0000ed6c  udmaMSP432HWAttrs                                            
2000a460  udmaMSP432Object                                             
0000acb5  unlink                                                       
0000aea9  write                                                        
0000ef7c  xdc_runtime_Assert_E_assertFailed__C                         
0000929d  xdc_runtime_Assert_raise__I                                  
0000ef80  xdc_runtime_Core_A_initializedParams__C                      
0000ef84  xdc_runtime_Core_Module__diagsEnabled__C                     
0000ef88  xdc_runtime_Core_Module__diagsIncluded__C                    
0000ef8c  xdc_runtime_Core_Module__diagsMask__C                        
0000f02e  xdc_runtime_Core_Module__id__C                               
0000a605  xdc_runtime_Core_assignLabel__I                              
000099c5  xdc_runtime_Core_assignParams__I                             
00005a6d  xdc_runtime_Core_constructObject__I                          
00004a41  xdc_runtime_Core_createObject__I                             
00008609  xdc_runtime_Core_deleteObject__I                             
0000ef90  xdc_runtime_Error_E_memory__C                                
0000ef94  xdc_runtime_Error_Module__diagsEnabled__C                    
0000ef98  xdc_runtime_Error_Module__diagsIncluded__C                   
0000ef9c  xdc_runtime_Error_Module__diagsMask__C                       
0000f030  xdc_runtime_Error_Module__loggerDefined__C                   
0000efa0  xdc_runtime_Error_Module__loggerFxn8__C                      
0000efa4  xdc_runtime_Error_Module__loggerObj__C                       
2000b0a8  xdc_runtime_Error_Module__state__V                           
0000ba09  xdc_runtime_Error_check__E                                   
00009395  xdc_runtime_Error_getSite__E                                 
0000c109  xdc_runtime_Error_init__E                                    
0000f032  xdc_runtime_Error_maxDepth__C                                
00004705  xdc_runtime_Error_policyDefault__E                           
0000efa8  xdc_runtime_Error_policyFxn__C                               
0000ec69  xdc_runtime_Error_policy__C                                  
000082c5  xdc_runtime_Error_print__E                                   
0000efac  xdc_runtime_Error_raiseHook__C                               
0000b5b9  xdc_runtime_Error_raiseX__E                                  
00009be9  xdc_runtime_Error_setX__E                                    
0000c115  xdc_runtime_Gate_enterSystem__E                              
0000be39  xdc_runtime_Gate_leaveSystem__E                              
0000efb0  xdc_runtime_IFilterLogger_Interface__BASE__C                 
0000efb4  xdc_runtime_IGateProvider_Interface__BASE__C                 
0000efb8  xdc_runtime_IHeap_Interface__BASE__C                         
0000efbc  xdc_runtime_ILogger_Interface__BASE__C                       
0000efc0  xdc_runtime_IModule_Interface__BASE__C                       
0000efc4  xdc_runtime_Log_L_error__C                                   
0000b6dd  xdc_runtime_Main_Module_GateProxy_Handle__label__S           
0000b381  xdc_runtime_Main_Module_GateProxy_Object__delete__S          
0000c2a1  xdc_runtime_Main_Module_GateProxy_query__E                   
0000b711  xdc_runtime_Memory_HeapProxy_Handle__label__S                
0000b3a1  xdc_runtime_Memory_HeapProxy_Object__delete__S               
0000c1bf  xdc_runtime_Memory_HeapProxy_alloc__E                        
0000c1c9  xdc_runtime_Memory_HeapProxy_free__E                         
0000f034  xdc_runtime_Memory_Module__id__C                             
2000b0a4  xdc_runtime_Memory_Module__state__V                          
00008331  xdc_runtime_Memory_alloc__E                                  
0000c121  xdc_runtime_Memory_calloc__E                                 
0000efc8  xdc_runtime_Memory_defaultHeapInstance__C                    
0000be49  xdc_runtime_Memory_free__E                                   
0000c12d  xdc_runtime_Memory_getMaxDefaultTypeAlign__E                 
0000b5d5  xdc_runtime_Memory_valloc__E                                 
2000b03c  xdc_runtime_Registry_Module__state__V                        
0000b441  xdc_runtime_Registry_findById__E                             
2000b044  xdc_runtime_Startup_Module__state__V                         
00000001  xdc_runtime_Startup__EXECFXN__C                              
00000001  xdc_runtime_Startup__RESETFXN__C                             
0000efcc  xdc_runtime_Startup_execImpl__C                              
000093e9  xdc_runtime_Startup_exec__E                                  
0000bc73  xdc_runtime_Startup_exec__I                                  
0000ed78  xdc_runtime_Startup_firstFxns__A                             
0000ed9c  xdc_runtime_Startup_firstFxns__C                             
0000efd0  xdc_runtime_Startup_lastFxns__A                              
0000eda4  xdc_runtime_Startup_lastFxns__C                              
0000efd4  xdc_runtime_Startup_maxPasses__C                             
0000beff  xdc_runtime_Startup_reset__I                                 
0000c139  xdc_runtime_Startup_rtsDone__E                               
0000ed10  xdc_runtime_Startup_sfxnRts__A                               
0000efd8  xdc_runtime_Startup_sfxnRts__C                               
0000e9b0  xdc_runtime_Startup_sfxnTab__A                               
0000efdc  xdc_runtime_Startup_sfxnTab__C                               
00004d39  xdc_runtime_Startup_startMods__I                             
0000b461  xdc_runtime_SysStd_abort__E                                  
0000c145  xdc_runtime_SysStd_exit__E                                   
00009605  xdc_runtime_SysStd_putch__E                                  
00009655  xdc_runtime_SysStd_ready__E                                  
0000b6dd  xdc_runtime_System_Module_GateProxy_Handle__label__S         
0000b381  xdc_runtime_System_Module_GateProxy_Object__delete__S        
00009815  xdc_runtime_System_Module_GateProxy_enter__E                 
00009eb5  xdc_runtime_System_Module_GateProxy_leave__E                 
0000c2a1  xdc_runtime_System_Module_GateProxy_query__E                 
2000b04c  xdc_runtime_System_Module_State_0_atexitHandlers__A          
0000efe0  xdc_runtime_System_Module__gateObj__C                        
2000b054  xdc_runtime_System_Module__state__V                          
0000c297  xdc_runtime_System_Module_startup__E                         
0000b461  xdc_runtime_System_SupportProxy_abort__E                     
0000c145  xdc_runtime_System_SupportProxy_exit__E                      
00009605  xdc_runtime_System_SupportProxy_putch__E                     
00009655  xdc_runtime_System_SupportProxy_ready__E                     
0000efe4  xdc_runtime_System_abortFxn__C                               
00005e35  xdc_runtime_System_abortStd__E                               
0000b5f1  xdc_runtime_System_abort__E                                  
0000b795  xdc_runtime_System_aprintf__E                                
00009fed  xdc_runtime_System_aprintf_va__F                             
0000a2e1  xdc_runtime_System_atexit__E                                 
0000af1d  xdc_runtime_System_avprintf__E                               
00001281  xdc_runtime_System_doPrint__I                                
0000efe8  xdc_runtime_System_exitFxn__C                                
000097cd  xdc_runtime_System_exitStd__E                                
0000ba21  xdc_runtime_System_exit__E                                   
0000efec  xdc_runtime_System_extendFxn__C                              
000081e9  xdc_runtime_System_formatNum__I                              
0000eff0  xdc_runtime_System_maxAtexitHandlers__C                      
00004e31  xdc_runtime_System_printfExtend__I                           
0000b7af  xdc_runtime_System_printf__E                                 
0000a02d  xdc_runtime_System_printf_va__F                              
0000aa71  xdc_runtime_System_processAtExit__E                          
0000ad8b  xdc_runtime_System_putchar__I                                
0000b1d5  xdc_runtime_System_vprintf__E                                
0000be59  xdc_runtime_System_vsnprintf__E                              
0000f036  xdc_runtime_Text_charCnt__C                                  
0000c2d8  xdc_runtime_Text_charTab__A                                  
0000eff4  xdc_runtime_Text_charTab__C                                  
0000ace1  xdc_runtime_Text_cordText__E                                 
0000f038  xdc_runtime_Text_isLoaded__C                                 
0000eff8  xdc_runtime_Text_nameEmpty__C                                
0000effc  xdc_runtime_Text_nameStatic__C                               
0000f000  xdc_runtime_Text_nameUnknown__C                              
0000e600  xdc_runtime_Text_nodeTab__A                                  
0000f004  xdc_runtime_Text_nodeTab__C                                  
0000a639  xdc_runtime_Text_printVisFxn__I                              
00008c1d  xdc_runtime_Text_putLab__E                                   
00006d35  xdc_runtime_Text_putMod__E                                   
00006fad  xdc_runtime_Text_putSite__E                                  
0000f03a  xdc_runtime_Text_registryModsLastId__C                       
0000ba39  xdc_runtime_Text_ropeText__E                                 
0000f03c  xdc_runtime_Text_unnamedModsLastId__C                        
00009439  xdc_runtime_Text_visitRope2__I                               
0000f008  xdc_runtime_Text_visitRopeFxn__C                             
0000be69  xdc_runtime_Text_visitRope__I                                
00009c2d  xdc_runtime_Text_xprintf__I                                  
00008929  xdc_runtime_Timestamp_SupportProxy_get32__E                  
00008179  xdc_runtime_Timestamp_SupportProxy_get64__E                  
0000bd69  xdc_runtime_Timestamp_SupportProxy_getFreq__E                
00008929  xdc_runtime_Timestamp_get32__E                               
00008179  xdc_runtime_Timestamp_get64__E                               
0000bd69  xdc_runtime_Timestamp_getFreq__E                             


GLOBAL SYMBOLS: SORTED BY Symbol Address 

address   name                                                         
-------   ----                                                         
00000000  __ASM__                                                      
00000000  ti_sysbios_family_arm_m3_Hwi_resetVectors                    
00000001  xdc_runtime_Startup__EXECFXN__C                              
00000001  xdc_runtime_Startup__RESETFXN__C                             
00000041  pow                                                          
00000041  powl                                                         
00000079  __ISA__                                                      
0000008c  __PLAT__                                                     
000000af  __TARG__                                                     
000000d5  __TRDR__                                                     
00000400  __STACK_SIZE                                                 
00000a01  UART_packet_format_and_send                                  
00000e51  ti_sysbios_family_arm_m3_Hwi_excDumpRegs__I                  
00001281  xdc_runtime_System_doPrint__I                                
000015cd  CPU_wfi                                                      
000015d1  ti_sysbios_knl_Semaphore_pend__E                             
000018bd  ADS_main_task                                                
00001b55  ADS_PowerOn_Init                                             
00001dc1  ti_sysbios_heaps_HeapMem_free__E                             
0000202d  Power_sleep                                                  
00002291  UARTMSP432_open                                              
000024f1  ti_sysbios_heaps_HeapMem_alloc__E                            
00002741  ti_sysbios_knl_Task_sleep__E                                 
00002949  ti_sysbios_family_arm_m3_Hwi_excHandlerMax__I                
00002b45  __aeabi_dsub                                                 
00002b4f  __aeabi_dadd                                                 
00002e9b  PowerMSP432_initPolicy                                       
00002e9d  MSP_ADS_SPI_read_ecg_resp_data                               
00003021  SPIMSP432DMA_open                                            
0000319d  I2CMSP432_open                                               
00003315  EUSCI_A_SPI_getReceiveBufferAddressForDMA                    
00003319  ti_sysbios_family_arm_m3_Hwi_excBusFault__I                  
0000348d  EUSCI_A_SPI_getTransmitBufferAddressForDMA                   
00003491  ti_sysbios_family_arm_m3_Hwi_excUsageFault__I                
000035f5  sqrt                                                         
000035f5  sqrtl                                                        
0000374d  EUSCI_B_SPI_getReceiveBufferAddressForDMA                    
00003751  ti_sysbios_family_arm_m3_Hwi_excMemFault__I                  
00003899  GPIO_setConfig                                               
000039d9  ti_sysbios_knl_Semaphore_post__E                             
00003b19  AFE_main_task                                                
00003c55  EUSCI_B_SPI_getTransmitBufferAddressForDMA                   
00003c59  ti_sysbios_heaps_HeapMem_Instance_init__E                    
00003d95  HwiP_disable                                                 
00003d99  ti_sysbios_knl_Clock_workFunc__E                             
00003ed5  I2C_setSlaveAddress                                          
00003ed9  ti_sysbios_family_arm_m3_Hwi_dispatchC__I                    
00004011  ti_uia_loggers_LoggerStopMode_writeMemoryRange__E            
00004149  __aeabi_ddiv                                                 
0000427f  SPIMSP432DMA_serviceISR                                      
00004281  Pacedetect_main_task                                         
000043b1  ti_sysbios_knl_Clock_Instance_init__E                        
000044cd  List_head                                                    
000044d1  ti_sysbios_knl_Swi_run__I                                    
000045ed  I2CMSP432_hwiIntFxn                                          
00004705  xdc_runtime_Error_policyDefault__E                           
0000481d  ti_uia_loggers_LoggerStopMode_write8__E                      
00004931  ldexp                                                        
00004931  ldexpl                                                       
00004931  scalbn                                                       
00004931  scalbnl                                                      
00004a41  xdc_runtime_Core_createObject__I                             
00004b41  __aeabi_dmul                                                 
00004c3d  ti_uia_loggers_LoggerStopMode_write4__E                      
00004d39  xdc_runtime_Startup_startMods__I                             
00004e31  xdc_runtime_System_printfExtend__I                           
00005019  ti_uia_loggers_LoggerStopMode_write2__E                      
00005109  ti_sysbios_family_arm_m3_Hwi_dispatch__I                     
000051f5  ti_uia_loggers_LoggerStopMode_write1__E                      
000052e1  CS_initClockSignal                                           
000053c1  MSP_ADS_SPI_read_register                                    
00005579  setvbuf                                                      
00005655  ti_uia_loggers_LoggerStopMode_write0__E                      
00005731  MSP_AFE_SPI_read                                             
00005805  MSP_ADS_SPI_write_register                                   
000058d5  DMA_assignChannel                                            
000059a1  ti_sysbios_knl_Task_schedule__I                              
00005a6d  xdc_runtime_Core_constructObject__I                          
00005b39  ti_sysbios_knl_Task_exit__E                                  
00005bf9  ti_sysbios_family_arm_m3_Hwi_excDebugMon__I                  
00005cb5  List_next                                                    
00005cb9  ti_sysbios_family_arm_m3_Hwi_excHardFault__I                 
00005d75  PowerMSP432_getNumPerfLevels                                 
00005d79  ti_sysbios_knl_Task_startCore__E                             
00005e35  C$$EXIT                                                      
00005e35  abort                                                        
00005e35  xdc_runtime_System_abortStd__E                               
00005e39  ti_sysbios_utils_Load_updateLoads__E                         
00005e39  ti_sysbios_utils_Load_update__E                              
00005ef5  MSP_ADS_SPI_write_command                                    
00005fad  MSP_UART_initialise                                          
00006115  ti_sysbios_BIOS_RtsGateProxy_enter__E                        
00006119  ti_sysbios_gates_GateMutex_enter__E                          
000061cd  ti_sysbios_BIOS_RtsGateProxy_leave__E                        
000061d1  ti_sysbios_knl_Task_checkStacks__E                           
00006285  MSP_AFE_SPI_write                                            
00006335  MSP_TMP_I2C_write                                            
000063e5  UARTMSP432_readPolling                                       
00006545  ti_sysbios_family_arm_m3_Hwi_destruct                        
00006549  ti_sysbios_knl_Task_yield__E                                 
000065f9  ti_sysbios_utils_Load_idleFxn__E                             
000066a9  MSP_TMP_I2C_read                                             
00006755  ti_sysbios_family_arm_m3_TaskSupport_Module__startupDone__S  
00006755  ti_sysbios_knl_Task_SupportProxy_Module__startupDone__S      
00006759  ti_sysbios_knl_Swi_post__E                                   
00006805  ti_sysbios_heaps_HeapMem_Module_GateProxy_enter__E           
00006809  ti_sysbios_family_arm_msp432_Timer_periodicStub__E           
000068b1  ti_sysbios_knl_Task_blockI__E                                
00006959  ti_sysbios_knl_Task_postInit__I                              
00006a01  MSP_ADC_I2C_write                                            
00006aa5  MSP_DAC_I2C_write                                            
00006b49  UARTMSP432_control                                           
00006bed  ti_sysbios_heaps_HeapMem_Module_GateProxy_leave__E           
00006bf1  ti_sysbios_knl_Clock_Instance_finalize__E                    
00006c95  __TI_auto_init                                               
00006d35  xdc_runtime_Text_putMod__E                                   
00006e71  __aeabi_memcpy                                               
00006e71  __aeabi_memcpy4                                              
00006e71  __aeabi_memcpy8                                              
00006e71  memcpy                                                       
00006f0d  ti_sysbios_knl_Clock_TimerProxy_getMaxTicks__E               
00006f11  ti_sysbios_knl_Semaphore_Instance_init__E                    
00006fad  xdc_runtime_Text_putSite__E                                  
00007047  _nop                                                         
00007049  MSP_SPI_initialise                                           
000070dd  UART_initModule                                              
00007171  ti_sysbios_family_arm_m3_Hwi_Instance_init__E                
00007205  ti_sysbios_knl_Clock_destruct                                
00007209  ti_sysbios_family_arm_m3_Hwi_initNVIC__E                     
0000729d  I2CMSP432_cancel                                             
0000732f  __aeabi_idiv0                                                
0000732f  __aeabi_ldiv0                                                
00007331  ti_sysbios_knl_Task_unblockI__E                              
000073c1  ti_uia_loggers_LoggerStopMode_initQueueDescriptor__E         
00007451  I2CMSP432_transfer                                           
000074dd  fputc                                                        
000074dd  putc                                                         
00007569  ti_sysbios_family_arm_m3_TaskSupport_buildTaskStack          
000075f5  UARTMSP432_close                                             
0000767f  ADS_reset                                                    
00007707  SPI_initMaster                                               
0000778f  ti_sysbios_BIOS_nullFunc__I                                  
00007791  ti_sysbios_family_arm_msp432_Timer_Module_startup__E         
00007819  __aeabi_cdcmpeq                                              
00007819  __aeabi_cdcmple                                              
0000789f  __aeabi_cdrcmple                                             
00007925  ADS_read_ecg_resp_data                                       
00007a2d  ti_sysbios_knl_Queue_destruct                                
00007a31  ti_sysbios_family_arm_m3_Hwi_postInit__I                     
00007bbb  ti_uia_loggers_LoggerStopMode_setFilterLevel__E              
00007bbd  DMA_setChannelTransfer                                       
00007c3d  TMP_main_task                                                
00007cbd  ti_sysbios_knl_Semaphore_destruct                            
00007cc1  ti_sysbios_family_arm_msp432_Timer_startup__E                
00007cc1  ti_sysbios_knl_Clock_TimerProxy_startup__E                   
00007d41  PCM_gotoLPM3                                                 
00007dbd  fflush                                                       
00007e39  UARTMSP432_write                                             
00007f2d  __aeabi_memclr                                               
00007f2d  __aeabi_memclr4                                              
00007f2d  __aeabi_memclr8                                              
00007f2f  __aeabi_memset                                               
00007f2f  __aeabi_memset4                                              
00007f2f  __aeabi_memset8                                              
00007f35  memset                                                       
00007fa7  ti_uia_loggers_LoggerStopMode_setPriority__E                 
00007fa9  __TI_closefile                                               
00008091  ti_sysbios_knl_Clock_start__E                                
00008105  ti_uia_runtime_QueueDescriptor_addToList__E                  
00008179  ti_sysbios_family_arm_m3_TimestampProvider_get64__E          
00008179  xdc_runtime_Timestamp_SupportProxy_get64__E                  
00008179  xdc_runtime_Timestamp_get64__E                               
000081e9  xdc_runtime_System_formatNum__I                              
00008259  ti_sysbios_knl_Swi_restoreHwi__E                             
000082c5  xdc_runtime_Error_print__E                                   
00008331  xdc_runtime_Memory_alloc__E                                  
0000839d  HOSTlseek                                                    
00008405  HOSTrename                                                   
0000846d  __TI_decompress_lzss                                         
0000853d  I2CMSP432_close                                              
000085a3  ti_uia_loggers_LoggerStopMode_flush__E                       
00008609  xdc_runtime_Core_deleteObject__I                             
00008671  MSP_I2C_initialize                                           
000086d5  Set_SPI_mode                                                 
00008739  UARTMSP432_writePolling                                      
0000879d  fseek                                                        
00008801  HwiP_create                                                  
00008863  __TI_wrt_ok                                                  
000088c5  HOSTopen                                                     
00008925  ti_uia_loggers_LoggerStopMode_getContents__E                 
00008929  ti_sysbios_family_arm_m3_TimestampProvider_get32__E          
00008929  xdc_runtime_Timestamp_SupportProxy_get32__E                  
00008929  xdc_runtime_Timestamp_get32__E                               
00008989  ti_sysbios_knl_Clock_logTick__E                              
000089e9  ti_sysbios_utils_Load_logCPULoad__I                          
00008a49  ADS_hard_stop                                                
00008aa5  GPIO_init                                                    
00008b01  close                                                        
00008b5d  ti_uia_loggers_LoggerStopMode_getFilterLevel__E              
00008b61  ti_sysbios_knl_Swi_schedule__I                               
00008bbd  ti_uia_loggers_LoggerStopMode_getInstanceId__E               
00008bc1  ti_sysbios_knl_Task_Module_startup__E                        
00008c1d  xdc_runtime_Text_putLab__E                                   
00008c79  ClockP_create                                                
00008cd3  SPIMSP432DMA_close                                           
00008d2d  HOSTread                                                     
00008d85  HOSTwrite                                                    
00008ddd  MSP432_UART_main_task                                        
00008e35  SPIMSP432DMA_transfer                                        
00008e8d  SemaphoreP_create                                            
00008ee5  _c_int00                                                     
00008f3d  ti_sysbios_family_arm_m3_Hwi_construct                       
00008f95  ti_sysbios_family_arm_m3_Hwi_initStacks__E                   
00008fed  ti_uia_loggers_LoggerStopMode_getMaxLength__E                
00008ff1  ti_sysbios_family_arm_m3_Timer_setPeriod__E                  
00009049  AFE4403_reg_read                                             
0000909d  GPIO_hwiIntFxn                                               
000090f1  GPIO_setCallback                                             
00009199  ti_sysbios_family_arm_m3_Timer_start__E                      
000091ed  ti_uia_loggers_LoggerStopMode_getPriority__E                 
000091f1  ti_sysbios_family_arm_msp432_Timer_initDevice__I             
00009245  ti_uia_loggers_LoggerStopMode_getTransferType__E             
00009249  ti_sysbios_family_arm_msp432_init_Boot_configureClocksHigh   
0000929d  xdc_runtime_Assert_raise__I                                  
000092f1  UARTMSP432_writeCancel                                       
00009345  PCM_shutdownDevice                                           
00009395  xdc_runtime_Error_getSite__E                                 
00009399  ti_sysbios_family_arm_m3_Hwi_Module_startup__E               
000093e9  xdc_runtime_Startup_exec__E                                  
00009439  xdc_runtime_Text_visitRope2__I                               
00009489  GPIO_setAsPeripheralModuleFunctionOutputPin                  
000094d5  UDMAMSP432_open                                              
00009521  __TI_doflush                                                 
0000956d  copy_in                                                      
000095b9  ti_sysbios_heaps_HeapMem_getStats__E                         
00009605  xdc_runtime_SysStd_putch__E                                  
00009605  xdc_runtime_System_SupportProxy_putch__E                     
00009609  ti_sysbios_knl_Swi_runLoop__I                                
00009655  xdc_runtime_SysStd_ready__E                                  
00009655  xdc_runtime_System_SupportProxy_ready__E                     
00009659  ti_sysbios_knl_Task_allBlockedFunction__I                    
000096a5  ti_uia_loggers_LoggerStopMode_Module_startup__E              
0000973d  DMA_assignInterrupt                                          
00009785  GPIO_setAsPeripheralModuleFunctionInputPin                   
000097cd  exit                                                         
000097cd  xdc_runtime_System_exitStd__E                                
00009815  xdc_runtime_System_Module_GateProxy_enter__E                 
00009819  ti_sysbios_family_arm_m3_Hwi_disableInterrupt__E             
00009819  ti_sysbios_hal_Hwi_HwiProxy_disableInterrupt__E              
00009819  ti_sysbios_hal_Hwi_disableInterrupt__E                       
00009861  ti_sysbios_family_arm_m3_Hwi_enableInterrupt__E              
00009861  ti_sysbios_hal_Hwi_HwiProxy_enableInterrupt__E               
00009861  ti_sysbios_hal_Hwi_enableInterrupt__E                        
000098a9  ti_sysbios_family_arm_m3_Hwi_excReserved__I                  
000098f1  ti_sysbios_family_arm_m3_Timer_initDevice__I                 
00009939  RingBuf_put                                                  
000099c5  xdc_runtime_Core_assignParams__I                             
00009a0d  HOSTclose                                                    
00009a51  HOSTunlink                                                   
00009a95  Power_init                                                   
00009ad9  getdevice                                                    
00009b1d  __aeabi_d2uiz                                                
00009b61  ti_sysbios_family_arm_m3_Hwi_getStackInfo__E                 
00009b61  ti_sysbios_hal_Hwi_HwiProxy_getStackInfo__E                  
00009b61  ti_sysbios_hal_Hwi_getStackInfo__E                           
00009ba5  ti_uia_loggers_LoggerStopMode_initBuffer__I                  
00009be9  xdc_runtime_Error_setX__E                                    
00009c2d  xdc_runtime_Text_xprintf__I                                  
00009c71  UARTMSP432_hwiIntFxn                                         
00009cf5  FlashCtl_disableReadBuffering                                
00009d35  I2C_masterSendMultiByteFinish                                
00009d75  RingBuf_get                                                  
00009db5  UARTMSP432_read                                              
00009df5  UDMAMSP432_init                                              
00009e75  __aeabi_uidiv                                                
00009e75  __aeabi_uidivmod                                             
00009eb5  xdc_runtime_System_Module_GateProxy_leave__E                 
00009eb9  ti_sysbios_family_arm_m3_Timer_Module_startup__E             
00009ef9  I2C_initMaster                                               
00009f39  DMA_enableInterrupt                                          
00009f75  PowerMSP432_sleepPolicy                                      
00009fb1  ti_sysbios_family_arm_m3_Hwi_excSvCall__I                    
00009fed  xdc_runtime_System_aprintf_va__F                             
00009ff1  ti_sysbios_heaps_HeapMem_init__I                             
0000a02d  xdc_runtime_System_printf_va__F                              
0000a031  ti_sysbios_knl_Swi_restore__E                                
0000a071  ti_sysbios_knl_Swi_startup__E                                
0000a0ad  SPIMSP432DMA_hwiFxn                                          
0000a121  ADS_write_register_configs                                   
0000a159  AFE4403_write_register_configs                               
0000a191  I2C_init                                                     
0000a1c9  SPI_init                                                     
0000a201  UART_init                                                    
0000a239  __TI_writemsg                                                
0000a267  C$$IO$$                                                      
0000a2a9  ti_sysbios_family_arm_m3_Hwi_excNoIsr__I                     
0000a2e1  xdc_runtime_System_atexit__E                                 
0000a319  UARTMSP432_readCancel                                        
0000a385  strncpy                                                      
0000a3bb  ADS_config_GPIO                                              
0000a3f1  FlashCtl_enableReadBuffering                                 
0000a425  __TI_cleanup                                                 
0000a459  __TI_readmsg                                                 
0000a48d  ti_sysbios_BIOS_startFunc__I                                 
0000a4c1  ti_sysbios_family_arm_m3_Hwi_Instance_finalize__E            
0000a4f9  ti_sysbios_family_arm_m3_Hwi_excNmi__I                       
0000a531  ti_sysbios_family_arm_m3_Timer_periodicStub__I               
0000a569  ti_sysbios_hal_Hwi_checkStack                                
0000a59d  ti_sysbios_knl_Clock_construct                               
0000a5d1  ti_uia_loggers_LoggerStopMode_reset__E                       
0000a605  xdc_runtime_Core_assignLabel__I                              
0000a639  xdc_runtime_Text_printVisFxn__I                              
0000a66d  SPI_initSlave                                                
0000a6a1  ti_sysbios_hal_Hwi_initStack                                 
0000a6d3  I2CMSP432_control                                            
0000a6d9  ti_sysbios_knl_Semaphore_pendTimeout__I                      
0000a70b  ADS_disable_start                                            
0000a73b  ADS_enable_start                                             
0000a76d  GPIO_getEnabledInterruptStatus                               
0000a79d  GPIO_setAsInputPinWithPullDownResistor                       
0000a7cd  GPIO_setAsInputPinWithPullUpResistor                         
0000a7fd  I2C_open                                                     
0000a82d  SPI_open                                                     
0000a85d  UART_open                                                    
0000a88d  finddevice                                                   
0000a8ed  ti_sysbios_BIOS_atExitFunc__I                                
0000a921  ti_sysbios_family_arm_m3_TaskSupport_start__E                
0000a921  ti_sysbios_knl_Task_SupportProxy_start__E                    
0000a951  ti_sysbios_gates_GateHwi_Object__create__S                   
0000a981  ti_sysbios_gates_GateMutex_Object__create__S                 
0000a9b1  ti_sysbios_heaps_HeapMem_Object__create__S                   
0000a9e1  ti_sysbios_knl_Semaphore_construct                           
0000aa11  ti_sysbios_utils_Load_updateCurrentThreadTime__E             
0000aa41  ti_uia_loggers_LoggerStopMode_Object__create__S              
0000aa71  xdc_runtime_System_processAtExit__E                          
0000aaa1  ff_memalloc                                                  
0000aaa1  malloc                                                       
0000aacf  __aeabi_i2d                                                  
0000aafd  ADS_register_read                                            
0000ab29  GPIO_setAsInputPin                                           
0000ab55  PCM_getCoreVoltageLevel                                      
0000ab81  PowerMSP432_updateFreqs                                      
0000abad  Power_releaseConstraint                                      
0000abd9  Power_setConstraint                                          
0000ac05  main                                                         
0000ac31  ti_sysbios_knl_Clock_doTick__I                               
0000ac5d  ti_sysbios_knl_Queue_construct                               
0000ac89  ti_sysbios_knl_Task_restore__E                               
0000acb5  remove                                                       
0000acb5  unlink                                                       
0000ace1  xdc_runtime_Text_cordText__E                                 
0000ad0d  PCM_getPowerMode                                             
0000ad8b  xdc_runtime_System_putchar__I                                
0000adb5  FlashCtl_setWaitState                                        
0000addd  GPIO_enableInt                                               
0000ae05  GUI_init_task                                                
0000ae2d  PCM_gotoLPM0                                                 
0000ae55  lseek                                                        
0000ae81  ti_sysbios_knl_Swi_Module_startup__E                         
0000aea9  write                                                        
0000aed1  List_put                                                     
0000aef7  ti_sysbios_family_arm_m3_Hwi_pendSV__I                       
0000af1b  ti_sysbios_family_arm_m3_Hwi_return                          
0000af1d  xdc_runtime_System_avprintf__E                               
0000af45  CS_setDCOCenteredFrequency                                   
0000af69  DMA_setChannelControl                                        
0000af8d  GPIO_setAsOutputPin                                          
0000afb1  I2C_masterSendMultiByteNext                                  
0000afd5  MSP_UART_write                                               
0000aff9  RTC_C_holdClock                                              
0000b01d  RTC_C_startClock                                             
0000b041  UART_disableInterrupt                                        
0000b065  UART_receiveData                                             
0000b089  UART_transmitData                                            
0000b0ad  ti_sysbios_BIOS_errorRaiseHook__I                            
0000b0d1  ti_sysbios_BIOS_registerRTSLock__I                           
0000b0f5  ti_sysbios_BIOS_removeRTSLock__I                             
0000b119  ti_sysbios_family_arm_m3_Hwi_doTaskRestore__I                
0000b141  ti_sysbios_family_arm_m3_Timer_startup__E                    
0000b169  ti_sysbios_family_arm_msp432_ClockFreqs_setFrequency__E      
0000b18d  ti_sysbios_BIOS_RtsGateProxy_Object__delete__S               
0000b18d  ti_sysbios_gates_GateMutex_Object__delete__S                 
0000b18d  ti_sysbios_heaps_HeapMem_Module_GateProxy_Object__delete__S  
0000b1b1  ti_sysbios_knl_Clock_Module_startup__E                       
0000b1d5  xdc_runtime_System_vprintf__E                                
0000b1f9  ADS_clock_selection                                          
0000b21d  GPIO_interruptEdgeSelect                                     
0000b23d  PowerMSP432_getFreqs                                         
0000b25d  Power_unregisterNotify                                       
0000b27d  RingBuf_peek                                                 
0000b29d  TMP_reg_read_temp                                            
0000b2bd  TMP_reg_write                                                
0000b2dd  UDMAMSP432_close                                             
0000b2fd  ti_sysbios_BIOS_rtsLock__I                                   
0000b31d  ti_sysbios_family_arm_m3_Hwi_excHandlerAsm__I                
0000b341  ti_sysbios_family_arm_m3_Hwi_excHandler__I                   
0000b361  ti_sysbios_family_arm_m3_TimestampProvider_Module_startup__E 
0000b381  ti_sysbios_gates_GateHwi_Object__delete__S                   
0000b381  xdc_runtime_Main_Module_GateProxy_Object__delete__S          
0000b381  xdc_runtime_System_Module_GateProxy_Object__delete__S        
0000b3a1  ti_sysbios_heaps_HeapMem_Object__delete__S                   
0000b3a1  xdc_runtime_Memory_HeapProxy_Object__delete__S               
0000b3c1  ti_sysbios_knl_Clock_Object__destruct__S                     
0000b3e1  ti_sysbios_knl_Idle_run__E                                   
0000b401  ti_sysbios_knl_Semaphore_Object__destruct__S                 
0000b421  ti_uia_loggers_LoggerStopMode_Object__delete__S              
0000b441  xdc_runtime_Registry_findById__E                             
0000b461  xdc_runtime_SysStd_abort__E                                  
0000b461  xdc_runtime_System_SupportProxy_abort__E                     
0000b481  ti_sysbios_family_xxx_Hwi_switchAndRunFunc                   
0000b49f  AFE4403_reg_write                                            
0000b4bb  MSP_EXP432P401R_initSPI                                      
0000b4d9  PCM_enableRudeMode                                           
0000b4f5  Pace_detect_goes_high                                        
0000b511  Power_registerNotify                                         
0000b52d  ti_sysbios_family_arm_m3_Hwi_Object__destruct__S             
0000b549  ti_sysbios_gates_GateMutex_Instance_init__E                  
0000b565  ti_sysbios_knl_Queue_Object__destruct__S                     
0000b581  ti_sysbios_knl_Task_enter__I                                 
0000b59d  ti_uia_loggers_LoggerStopMode_Instance_init__E               
0000b5b9  xdc_runtime_Error_raiseX__E                                  
0000b5d5  xdc_runtime_Memory_valloc__E                                 
0000b5f1  xdc_runtime_System_abort__E                                  
0000b60d  List_remove                                                  
0000b627  Pacedetect_ADC_reg_write                                     
0000b641  Pacedetect_DAC_reg_write                                     
0000b65b  SPI_disableModule                                            
0000b675  SPI_enableModule                                             
0000b68f  SPI_getReceiveBufferAddressForDMA                            
0000b6a9  SPI_getTransmitBufferAddressForDMA                           
0000b6c3  ti_sysbios_family_arm_m3_Hwi_Handle__label__S                
0000b6c3  ti_sysbios_hal_Hwi_HwiProxy_Handle__label__S                 
0000b6dd  ti_sysbios_gates_GateHwi_Handle__label__S                    
0000b6dd  xdc_runtime_Main_Module_GateProxy_Handle__label__S           
0000b6dd  xdc_runtime_System_Module_GateProxy_Handle__label__S         
0000b6f7  ti_sysbios_BIOS_RtsGateProxy_Handle__label__S                
0000b6f7  ti_sysbios_gates_GateMutex_Handle__label__S                  
0000b6f7  ti_sysbios_heaps_HeapMem_Module_GateProxy_Handle__label__S   
0000b711  ti_sysbios_heaps_HeapMem_Handle__label__S                    
0000b711  xdc_runtime_Memory_HeapProxy_Handle__label__S                
0000b72b  ti_sysbios_knl_Swi_Handle__label__S                          
0000b745  ti_sysbios_knl_Task_Handle__label__S                         
0000b761  ti_sysbios_knl_Task_sleepTimeout__I                          
0000b77b  ti_uia_loggers_LoggerStopMode_Handle__label__S               
0000b795  xdc_runtime_System_aprintf__E                                
0000b7af  xdc_runtime_System_printf__E                                 
0000b7c9  ADS_disable_Respiration                                      
0000b7e1  ADS_enable_Respiration                                       
0000b7f9  ADS_register_write                                           
0000b811  DMA_clearInterruptFlag                                       
0000b829  DMA_enableChannel                                            
0000b841  DMA_isChannelEnabled                                         
0000b859  GPIO_clearInterruptFlag                                      
0000b871  GPIO_setDriveStrengthLow                                     
0000b889  GPIO_setOutputLowOnPin                                       
0000b8a1  I2C_masterIsStartSent                                        
0000b8b9  MSP_ADS_DRDY_Config                                          
0000b8d1  MSP_AFE_ADC_RDY_Config                                       
0000b8e9  MSP_pace_detect_config                                       
0000b901  SPIMSP432DMA_transferCancel                                  
0000b919  UART_Params_init                                             
0000b931  WDT_A_holdTimer                                              
0000b949  _args_main                                                   
0000b961  ff_memfree                                                   
0000b961  free                                                         
0000b961  mem_Free                                                     
0000b979  strcmp                                                       
0000b991  ti_sysbios_BIOS_rtsUnlock__I                                 
0000b9a9  ti_sysbios_family_arm_m3_Hwi_Module__startupDone__F          
0000b9a9  ti_sysbios_family_arm_m3_Hwi_Module__startupDone__S          
0000b9a9  ti_sysbios_hal_Hwi_HwiProxy_Module__startupDone__S           
0000b9c1  ti_sysbios_family_arm_m3_TaskSupport_swap__E                 
0000b9c1  ti_sysbios_knl_Task_SupportProxy_swap__E                     
0000b9cd  ti_sysbios_knl_Task_swapReturn                               
0000b9d9  ti_sysbios_family_arm_msp432_Timer_Module__startupDone__F    
0000b9d9  ti_sysbios_family_arm_msp432_Timer_Module__startupDone__S    
0000b9d9  ti_sysbios_knl_Clock_TimerProxy_Module__startupDone__S       
0000b9f1  ti_sysbios_gates_GateMutex_leave__E                          
0000ba09  xdc_runtime_Error_check__E                                   
0000ba21  xdc_runtime_System_exit__E                                   
0000ba39  xdc_runtime_Text_ropeText__E                                 
0000ba51  ClockP_delete                                                
0000ba67  HwiP_delete                                                  
0000ba7d  SemaphoreP_delete                                            
0000ba93  UART_enableInterrupt                                         
0000baa9  strchr                                                       
0000babf  ti_sysbios_BIOS_exitFunc__I                                  
0000bad5  ti_uia_loggers_LoggerStopMode_disable__E                     
0000baeb  ti_uia_loggers_LoggerStopMode_enable__E                      
0000bb01  GPIO_enableInterrupt                                         
0000bb15  GPIO_setDriveStrengthHigh                                    
0000bb29  GPIO_setOutputHighOnPin                                      
0000bb3d  Power_idleFunc                                               
0000bb51  SPI_Params_init                                              
0000bb65  WDT_A_startTimer                                             
0000bb79  copysign                                                     
0000bb79  copysignl                                                    
0000bb8d  strcpy                                                       
0000bba1  strlen                                                       
0000bbb5  ti_sysbios_family_arm_m3_Hwi_Object__get__S                  
0000bbc9  ti_sysbios_family_arm_m3_Hwi_switchFromBootStack__E          
0000bbc9  ti_sysbios_hal_Hwi_HwiProxy_switchFromBootStack__E           
0000bbc9  ti_sysbios_hal_Hwi_switchFromBootStack__E                    
0000bbdd  ti_sysbios_heaps_HeapMem_Object__get__S                      
0000bbf1  ti_sysbios_knl_Swi_Object__get__S                            
0000bc05  ClockP_start                                                 
0000bc05  ClockP_startFromISR                                          
0000bc17  MSP_EXP432P401R_initI2C                                      
0000bc29  MSP_EXP432P401R_initUART                                     
0000bc3b  RingBuf_construct                                            
0000bc4d  SemaphoreP_pend                                              
0000bc61  ti_sysbios_hal_Hwi_Module_startup__E                         
0000bc73  xdc_runtime_Startup_exec__I                                  
0000bc85  ADS_DRDY_goes_low                                            
0000bc95  ADS_write_command                                            
0000bca5  AFE_ADC_RDY_goes_low                                         
0000bcb5  CLOCK_TMP_read_temperature                                   
0000bcc5  DMA_clearErrorStatus                                         
0000bcd5  DMA_enableModule                                             
0000bce5  GPIO_getInterruptStatus                                      
0000bcf5  I2C_Params_init                                              
0000bd05  I2C_masterReceiveMultiByteStop                               
0000bd15  I2C_masterReceiveStart                                       
0000bd25  I2C_masterSendStart                                          
0000bd35  PCM_gotoLPM4                                                 
0000bd69  ti_sysbios_BIOS_getCpuFreq__E                                
0000bd69  ti_sysbios_family_arm_m3_TimestampProvider_getFreq__E        
0000bd69  xdc_runtime_Timestamp_SupportProxy_getFreq__E                
0000bd69  xdc_runtime_Timestamp_getFreq__E                             
0000bd79  ti_sysbios_BIOS_setCpuFreq__E                                
0000bd89  ti_sysbios_BIOS_setThreadType__E                             
0000bd99  osi_start                                                    
0000bd99  ti_sysbios_BIOS_start__E                                     
0000bda9  ti_sysbios_family_arm_m3_TaskSupport_glue                    
0000bdb9  ti_sysbios_family_arm_msp432_init_Boot_disableWatchdog       
0000bdc9  ti_sysbios_gates_GateMutex_Instance_finalize__E              
0000bdd9  ti_sysbios_knl_Semaphore_Instance_finalize__E                
0000bde9  ti_sysbios_knl_Swi_disable__E                                
0000bdf9  ti_sysbios_knl_Task_Object__get__S                           
0000be09  osi_TaskDisable                                              
0000be09  ti_sysbios_knl_Task_disable__E                               
0000be19  ti_uia_loggers_LoggerStopMode_Object__get__S                 
0000be29  ti_uia_loggers_LoggerStopMode_isEmpty__E                     
0000be39  xdc_runtime_Gate_leaveSystem__E                              
0000be49  xdc_runtime_Memory_free__E                                   
0000be59  xdc_runtime_System_vsnprintf__E                              
0000be69  xdc_runtime_Text_visitRope__I                                
0000be79  HwiP_Params_init                                             
0000be87  I2C_clearInterruptFlag                                       
0000be95  I2C_disableInterrupt                                         
0000bea3  I2C_setMode                                                  
0000beb1  UARTWriteCallback                                            
0000bebf  UART_clearInterruptFlag                                      
0000becd  __TI_decompress_none                                         
0000bedb  I2C_getEnabledInterruptStatus                                
0000bee1  ti_sysbios_knl_Idle_loop__E                                  
0000bef1  ti_sysbios_knl_Queue_empty__E                                
0000beff  ti_sysbios_family_arm_msp432_init_Boot_init__I               
0000beff  xdc_runtime_Startup_reset__I                                 
0000bf0b  ADS_CS_high                                                  
0000bf17  ADS_CS_low                                                   
0000bf23  ADS_reset_high                                               
0000bf2f  ADS_reset_low                                                
0000bf3b  ADS_start_high                                               
0000bf47  ADS_start_low                                                
0000bf53  AFE4403_disable_read                                         
0000bf5f  AFE4403_enable_read                                          
0000bf6b  AFE_CS_high                                                  
0000bf77  AFE_CS_low                                                   
0000bf83  CPU_cpsid                                                    
0000bf8f  CPU_cpsie                                                    
0000bf9d  DMA_getErrorStatus                                           
0000bfa9  DMA_setControlBase                                           
0000bfb5  EUSCI_A_SPI_disable                                          
0000bfc1  EUSCI_A_SPI_enable                                           
0000bfcd  EUSCI_B_SPI_disable                                          
0000bfd9  EUSCI_B_SPI_enable                                           
0000bfe5  I2C_disableModule                                            
0000bff1  I2C_enableModule                                             
0000bffd  PCM_getPowerState                                            
0000c009  Power_getConstraintMask                                      
0000c015  Power_getPerformanceLevel                                    
0000c021  UARTMSP432_init                                              
0000c02d  UART_disableModule                                           
0000c039  UART_enableModule                                            
0000c045  _register_lock                                               
0000c051  _register_unlock                                             
0000c05d  clock_pacedetectEnd                                          
0000c069  clock_pacedetectStart                                        
0000c075  __TI_zero_init                                               
0000c081  putchar                                                      
0000c08d  ti_sysbios_family_arm_m3_Hwi_Params__init__S                 
0000c08d  ti_sysbios_hal_Hwi_HwiProxy_Params__init__S                  
0000c099  ti_sysbios_family_arm_m3_Hwi_disableFxn__E                   
0000c099  ti_sysbios_hal_Hwi_HwiProxy_disable__E                       
0000c0a9  ti_sysbios_family_arm_m3_TaskSupport_checkStack__E           
0000c0a9  ti_sysbios_knl_Task_SupportProxy_checkStack__E               
0000c0b9  ti_sysbios_family_arm_m3_TimestampProvider_startTimer__E     
0000c0c9  ti_sysbios_family_arm_msp432_Timer_getMaxTicks__E            
0000c0d9  ti_sysbios_gates_GateHwi_enter__E                            
0000c0e5  ti_sysbios_knl_Clock_Params__init__S                         
0000c0f1  ti_sysbios_knl_Queue_Object__get__S                          
0000c0fd  ti_sysbios_knl_Semaphore_Params__init__S                     
0000c109  xdc_runtime_Error_init__E                                    
0000c115  xdc_runtime_Gate_enterSystem__E                              
0000c121  xdc_runtime_Memory_calloc__E                                 
0000c12d  xdc_runtime_Memory_getMaxDefaultTypeAlign__E                 
0000c139  xdc_runtime_Startup_rtsDone__E                               
0000c145  xdc_runtime_SysStd_exit__E                                   
0000c145  xdc_runtime_System_SupportProxy_exit__E                      
0000c151  ADS_soft_stop                                                
0000c15b  ADS_start_conv_command                                       
0000c165  ADS_stop_read_continuous                                     
0000c16f  ClockP_stop                                                  
0000c16f  ClockP_stopFromISR                                           
0000c179  I2CMSP432_init                                               
0000c183  I2C_transfer                                                 
0000c18d  SPIMSP432DMA_init                                            
0000c197  SPI_transfer                                                 
0000c1a1  SemaphoreP_post                                              
0000c1a1  SemaphoreP_postFromClock                                     
0000c1a1  SemaphoreP_postFromISR                                       
0000c1ab  Start_Read_Data_Continuous                                   
0000c1b5  UART_write                                                   
0000c1bf  xdc_runtime_Memory_HeapProxy_alloc__E                        
0000c1c9  xdc_runtime_Memory_HeapProxy_free__E                         
0000c1d3  ADS_init_resources                                           
0000c1db  ClockP_Params_init                                           
0000c1e3  I2C_enableInterrupt                                          
0000c1eb  MSP_EXP432P401R_initGPIO                                     
0000c1f3  MSP_EXP432P401R_initGeneral                                  
0000c1fb  PCM_setPowerMode                                             
0000c203  PCM_setPowerState                                            
0000c20b  SemaphoreP_Params_init                                       
0000c215  __aeabi_errno_addr                                           
0000c239  ti_sysbios_family_arm_m3_Hwi_doSwiRestore__I                 
0000c241  ti_sysbios_family_arm_m3_Hwi_startup__E                      
0000c241  ti_sysbios_hal_Hwi_HwiProxy_startup__E                       
0000c241  ti_sysbios_hal_Hwi_startup__E                                
0000c251  I2C_getInterruptStatus                                       
0000c257  I2C_masterReceiveMultiByteNext                               
0000c25d  SPIMSP432DMA_control                                         
0000c263  UART_getInterruptStatus                                      
0000c269  UART_queryStatusFlags                                        
0000c271  HwiP_restore                                                 
0000c271  ti_sysbios_family_arm_m3_Hwi_restoreFxn__E                   
0000c271  ti_sysbios_hal_Hwi_HwiProxy_restore__E                       
0000c279  ti_sysbios_gates_GateHwi_leave__E                            
0000c281  ti_sysbios_heaps_HeapMem_isBlocking__E                       
0000c289  ti_sysbios_knl_Clock_stop__E                                 
0000c291  ti_sysbios_knl_Queue_Instance_init__E                        
0000c297  xdc_runtime_System_Module_startup__E                         
0000c2a1  ti_sysbios_gates_GateHwi_query__E                            
0000c2a1  xdc_runtime_Main_Module_GateProxy_query__E                   
0000c2a1  xdc_runtime_System_Module_GateProxy_query__E                 
0000c2a9  ti_sysbios_BIOS_RtsGateProxy_query__E                        
0000c2a9  ti_sysbios_gates_GateMutex_query__E                          
0000c2a9  ti_sysbios_heaps_HeapMem_Module_GateProxy_query__E           
0000c2b1  ti_sysbios_knl_Clock_setTimeout__E                           
0000c2b9  ti_sysbios_knl_Task_startup__E                               
0000c2c1  ti_sysbios_BIOS_linkedWithIncorrectBootLibrary__E            
0000c2c9  ti_sysbios_family_arm_m3_TimestampProvider_rolloverFunc__E   
0000c2d1  ti_sysbios_gates_GateHwi_Instance_init__E                    
0000c2d8  xdc_runtime_Text_charTab__A                                  
0000e456  ti_sysbios_family_arm_m3_Hwi_Module__id__C                   
0000e458  AFE_REG                                                      
0000e600  xdc_runtime_Text_nodeTab__A                                  
0000e700  uartMSP432Baudrates                                          
0000e780  ti_uia_loggers_LoggerStopMode_Module__FXNS__C                
0000e7e0  MSP432_UART_main                                             
0000e7e4  SEM_AFE_RDY_GOES_LOW                                         
0000e7e8  AFE_main                                                     
0000e7ec  SEM_UART_DATA_TO_BE_SENT                                     
0000e7f0  SEM_ADS_DRDY_GOES_LOW                                        
0000e7f4  ADS_main                                                     
0000e7f8  SEM_ADS_INITIALIZE                                           
0000e7fc  SEM_GUI_INITIALISE                                           
0000e800  SEM_INTERRUPT_INIT                                           
0000e804  GUI_initialize                                               
0000e808  SEM_TMP_TASK                                                 
0000e80c  SEM_TMP_INITIALISE                                           
0000e810  TMP_main                                                     
0000e814  TMP_read                                                     
0000e818  SEM_PACE_DETECT_GOES_HIGH                                    
0000e81c  Pace_detect_task                                             
0000e820  SEM_PACE_MAKER_INIT                                          
0000e824  SEM_PACE_MAKER_OK                                            
0000e828  SEM_AFE_READ_COMPLETE                                        
0000e82c  pace_Start_clock                                             
0000e830  pace_end_clock                                               
0000e8b0  spiMSP432DMAHWAttrs                                          
0000e8e0  ti_sysbios_family_arm_m3_Hwi_Object__PARAMS__C               
0000e910  UARTMSP432_fxnTable                                          
0000e938  SPIMSP432DMA_fxnTable                                        
0000e960  ti_sysbios_heaps_HeapMem_Module__FXNS__C                     
0000e988  ti_uia_loggers_LoggerStopMode_Object__PARAMS__C              
0000e9b0  xdc_runtime_Startup_sfxnTab__A                               
0000e9d8  UART_defaultParams                                           
0000ea20  ti_sysbios_gates_GateHwi_Module__FXNS__C                     
0000ea44  ti_sysbios_gates_GateMutex_Module__FXNS__C                   
0000ea68  ti_sysbios_heaps_HeapMem_Object__PARAMS__C                   
0000ea8c  ti_sysbios_knl_Clock_Object__PARAMS__C                       
0000eab0  ti_sysbios_knl_Semaphore_Object__PARAMS__C                   
0000ead4  uartMSP432HWAttrs                                            
0000eaf8  I2CMSP432_fxnTable                                           
0000eb18  SPI_defaultParams                                            
0000eb38  ti_sysbios_family_arm_m3_Hwi_Object__DESC__C                 
0000eb58  ti_sysbios_gates_GateHwi_Object__DESC__C                     
0000eb78  ti_sysbios_gates_GateMutex_Object__DESC__C                   
0000eb98  ti_sysbios_heaps_HeapMem_Object__DESC__C                     
0000ebb8  ti_sysbios_knl_Clock_Object__DESC__C                         
0000ebd8  ti_sysbios_knl_Queue_Object__DESC__C                         
0000ebf8  ti_sysbios_knl_Semaphore_Object__DESC__C                     
0000ec18  ti_uia_loggers_LoggerStopMode_Object__DESC__C                
0000ec51  ADS_REG                                                      
0000ec69  xdc_runtime_Error_policy__C                                  
0000ec6a  ti_sysbios_family_arm_m3_Hwi_Module__loggerDefined__C        
0000ec6c  I2C_config                                                   
0000ec84  SPI_config                                                   
0000ec9c  UART_config                                                  
0000ecb4  ti_sysbios_gates_GateHwi_Object__PARAMS__C                   
0000eccc  ti_sysbios_gates_GateMutex_Object__PARAMS__C                 
0000ece4  ti_sysbios_knl_Queue_Object__PARAMS__C                       
0000ecfc  GPIOMSP432_config                                            
0000ed10  xdc_runtime_Startup_sfxnRts__A                               
0000ed24  PowerMSP432_config                                           
0000ed34  I2C_defaultParams                                            
0000ed44  i2cMSP432HWAttrs                                             
0000ed60  ti_sysbios_knl_Idle_funcList__A                              
0000ed6c  udmaMSP432HWAttrs                                            
0000ed78  xdc_runtime_Startup_firstFxns__A                             
0000ed84  UDMAMSP432_config                                            
0000ed8c  ti_sysbios_family_arm_m3_Hwi_excHookFuncs__A                 
0000ed94  ti_sysbios_knl_Idle_funcList__C                              
0000ed9c  xdc_runtime_Startup_firstFxns__C                             
0000eda4  xdc_runtime_Startup_lastFxns__C                              
0000edb2  ti_sysbios_family_arm_m3_Timer_Module__id__C                 
0000edb4  ti_sysbios_family_arm_m3_Hwi_E_NMI__C                        
0000edb8  ti_sysbios_family_arm_m3_Hwi_E_alreadyDefined__C             
0000edbc  ti_sysbios_family_arm_m3_Hwi_E_busFault__C                   
0000edc0  ti_sysbios_family_arm_m3_Hwi_E_debugMon__C                   
0000edc4  ti_sysbios_family_arm_m3_Hwi_E_hardFault__C                  
0000edc8  ti_sysbios_family_arm_m3_Hwi_E_memFault__C                   
0000edcc  ti_sysbios_family_arm_m3_Hwi_E_noIsr__C                      
0000edd0  ti_sysbios_family_arm_m3_Hwi_E_reserved__C                   
0000edd4  ti_sysbios_family_arm_m3_Hwi_E_svCall__C                     
0000edd8  ti_sysbios_family_arm_m3_Hwi_E_usageFault__C                 
0000eddc  ti_sysbios_family_arm_m3_Hwi_LD_end__C                       
0000ede0  ti_sysbios_family_arm_m3_Hwi_LM_begin__C                     
0000ede4  ti_sysbios_family_arm_m3_Hwi_Module__diagsEnabled__C         
0000ede8  ti_sysbios_family_arm_m3_Hwi_Module__diagsIncluded__C        
0000edec  ti_sysbios_family_arm_m3_Hwi_Module__diagsMask__C            
0000edf0  ti_sysbios_family_arm_m3_Hwi_Module__loggerFxn1__C           
0000edf4  ti_sysbios_family_arm_m3_Hwi_Module__loggerFxn8__C           
0000edf8  ti_sysbios_family_arm_m3_Hwi_Module__loggerObj__C            
0000edfc  ti_sysbios_family_arm_m3_Hwi_NUM_INTERRUPTS__C               
0000ee00  ti_sysbios_family_arm_m3_Hwi_Object__count__C                
0000ee04  ti_sysbios_family_arm_m3_Hwi_ccr__C                          
0000ee08  ti_sysbios_family_arm_m3_Hwi_excHandlerFunc__C               
0000ee0c  ti_sysbios_family_arm_m3_Hwi_excHookFuncs__C                 
0000ee10  ti_sysbios_family_arm_m3_Hwi_nullIsrFunc__C                  
0000ee14  ti_sysbios_family_arm_m3_Hwi_priGroup__C                     
0000ee18  ti_sysbios_family_arm_m3_Timer_E_cannotSupport__C            
0000ee1c  ti_sysbios_family_arm_m3_Timer_startupNeeded__C              
0000ee20  ti_sysbios_family_arm_msp432_Timer_numTimerDevices__C        
0000ee24  ti_sysbios_family_arm_msp432_Timer_startupNeeded__C          
0000ee28  ti_sysbios_gates_GateMutex_A_badContext__C                   
0000ee2c  ti_sysbios_gates_GateMutex_Instance_State_sem__O             
0000ee30  ti_sysbios_gates_GateMutex_Module__diagsEnabled__C           
0000ee34  ti_sysbios_gates_GateMutex_Module__diagsIncluded__C          
0000ee38  ti_sysbios_gates_GateMutex_Module__diagsMask__C              
0000ee3c  ti_sysbios_hal_Hwi_E_stackOverflow__C                        
0000ee40  ti_sysbios_heaps_HeapMem_A_align__C                          
0000ee44  ti_sysbios_heaps_HeapMem_A_heapSize__C                       
0000ee48  ti_sysbios_heaps_HeapMem_A_invalidFree__C                    
0000ee4c  ti_sysbios_heaps_HeapMem_A_zeroBlock__C                      
0000ee50  ti_sysbios_heaps_HeapMem_E_memory__C                         
0000ee54  ti_sysbios_heaps_HeapMem_Module__diagsEnabled__C             
0000ee58  ti_sysbios_heaps_HeapMem_Module__diagsIncluded__C            
0000ee5c  ti_sysbios_heaps_HeapMem_Module__diagsMask__C                
0000ee60  ti_sysbios_heaps_HeapMem_Module__gateObj__C                  
0000ee64  ti_sysbios_heaps_HeapMem_Object__count__C                    
0000ee68  ti_sysbios_heaps_HeapMem_reqAlign__C                         
0000ee6c  ti_sysbios_knl_Clock_A_badThreadType__C                      
0000ee70  ti_sysbios_knl_Clock_LM_begin__C                             
0000ee74  ti_sysbios_knl_Clock_LM_tick__C                              
0000ee78  ti_sysbios_knl_Clock_LW_delayed__C                           
0000ee7c  ti_sysbios_knl_Clock_Module_State_clockQ__O                  
0000ee80  ti_sysbios_knl_Clock_Module__diagsEnabled__C                 
0000ee84  ti_sysbios_knl_Clock_Module__diagsIncluded__C                
0000ee88  ti_sysbios_knl_Clock_Module__diagsMask__C                    
0000ee8c  ti_sysbios_knl_Clock_Module__loggerFxn1__C                   
0000ee90  ti_sysbios_knl_Clock_Module__loggerFxn2__C                   
0000ee94  ti_sysbios_knl_Clock_Module__loggerObj__C                    
0000ee98  ti_sysbios_knl_Semaphore_A_badContext__C                     
0000ee9c  ti_sysbios_knl_Semaphore_A_noEvents__C                       
0000eea0  ti_sysbios_knl_Semaphore_A_overflow__C                       
0000eea4  ti_sysbios_knl_Semaphore_A_pendTaskDisabled__C               
0000eea8  ti_sysbios_knl_Semaphore_Instance_State_pendQ__O             
0000eeac  ti_sysbios_knl_Semaphore_LM_pend__C                          
0000eeb0  ti_sysbios_knl_Semaphore_LM_post__C                          
0000eeb4  ti_sysbios_knl_Semaphore_Module__diagsEnabled__C             
0000eeb8  ti_sysbios_knl_Semaphore_Module__diagsIncluded__C            
0000eebc  ti_sysbios_knl_Semaphore_Module__diagsMask__C                
0000eec0  ti_sysbios_knl_Semaphore_Module__loggerFxn2__C               
0000eec4  ti_sysbios_knl_Semaphore_Module__loggerFxn4__C               
0000eec8  ti_sysbios_knl_Semaphore_Module__loggerObj__C                
0000eecc  ti_sysbios_knl_Swi_LD_end__C                                 
0000eed0  ti_sysbios_knl_Swi_LM_begin__C                               
0000eed4  ti_sysbios_knl_Swi_LM_post__C                                
0000eed8  ti_sysbios_knl_Swi_Module__diagsEnabled__C                   
0000eedc  ti_sysbios_knl_Swi_Module__diagsIncluded__C                  
0000eee0  ti_sysbios_knl_Swi_Module__diagsMask__C                      
0000eee4  ti_sysbios_knl_Swi_Module__loggerFxn1__C                     
0000eee8  ti_sysbios_knl_Swi_Module__loggerFxn4__C                     
0000eeec  ti_sysbios_knl_Swi_Module__loggerObj__C                      
0000eef0  ti_sysbios_knl_Swi_Object__count__C                          
0000eef4  ti_sysbios_knl_Task_A_badTimeout__C                          
0000eef8  ti_sysbios_knl_Task_A_sleepTaskDisabled__C                   
0000eefc  ti_sysbios_knl_Task_E_spOutOfBounds__C                       
0000ef00  ti_sysbios_knl_Task_E_stackOverflow__C                       
0000ef04  ti_sysbios_knl_Task_LD_block__C                              
0000ef08  ti_sysbios_knl_Task_LD_exit__C                               
0000ef0c  ti_sysbios_knl_Task_LD_ready__C                              
0000ef10  ti_sysbios_knl_Task_LM_sleep__C                              
0000ef14  ti_sysbios_knl_Task_LM_switch__C                             
0000ef18  ti_sysbios_knl_Task_LM_yield__C                              
0000ef1c  ti_sysbios_knl_Task_Module_State_inactiveQ__O                
0000ef20  ti_sysbios_knl_Task_Module__diagsEnabled__C                  
0000ef24  ti_sysbios_knl_Task_Module__diagsIncluded__C                 
0000ef28  ti_sysbios_knl_Task_Module__diagsMask__C                     
0000ef2c  ti_sysbios_knl_Task_Module__loggerFxn2__C                    
0000ef30  ti_sysbios_knl_Task_Module__loggerFxn4__C                    
0000ef34  ti_sysbios_knl_Task_Module__loggerObj__C                     
0000ef38  ti_sysbios_knl_Task_Object__count__C                         
0000ef3c  ti_sysbios_knl_Task_allBlockedFunc__C                        
0000ef40  ti_sysbios_knl_Task_numConstructedTasks__C                   
0000ef44  ti_sysbios_utils_Load_LS_cpuLoad__C                          
0000ef48  ti_sysbios_utils_Load_Module__diagsEnabled__C                
0000ef4c  ti_sysbios_utils_Load_Module__diagsIncluded__C               
0000ef50  ti_sysbios_utils_Load_Module__diagsMask__C                   
0000ef54  ti_sysbios_utils_Load_Module__loggerFxn1__C                  
0000ef58  ti_sysbios_utils_Load_Module__loggerObj__C                   
0000ef5c  ti_sysbios_utils_Load_postUpdate__C                          
0000ef60  ti_sysbios_utils_Load_windowInMs__C                          
0000ef64  ti_uia_loggers_LoggerStopMode_Module__diagsEnabled__C        
0000ef68  ti_uia_loggers_LoggerStopMode_Module__diagsIncluded__C       
0000ef6c  ti_uia_loggers_LoggerStopMode_Module__diagsMask__C           
0000ef70  ti_uia_loggers_LoggerStopMode_Object__count__C               
0000ef74  ti_uia_runtime_ILoggerSnapshot_Interface__BASE__C            
0000ef78  ti_uia_runtime_IUIATransfer_Interface__BASE__C               
0000ef7c  xdc_runtime_Assert_E_assertFailed__C                         
0000ef80  xdc_runtime_Core_A_initializedParams__C                      
0000ef84  xdc_runtime_Core_Module__diagsEnabled__C                     
0000ef88  xdc_runtime_Core_Module__diagsIncluded__C                    
0000ef8c  xdc_runtime_Core_Module__diagsMask__C                        
0000ef90  xdc_runtime_Error_E_memory__C                                
0000ef94  xdc_runtime_Error_Module__diagsEnabled__C                    
0000ef98  xdc_runtime_Error_Module__diagsIncluded__C                   
0000ef9c  xdc_runtime_Error_Module__diagsMask__C                       
0000efa0  xdc_runtime_Error_Module__loggerFxn8__C                      
0000efa4  xdc_runtime_Error_Module__loggerObj__C                       
0000efa8  xdc_runtime_Error_policyFxn__C                               
0000efac  xdc_runtime_Error_raiseHook__C                               
0000efb0  xdc_runtime_IFilterLogger_Interface__BASE__C                 
0000efb4  xdc_runtime_IGateProvider_Interface__BASE__C                 
0000efb8  xdc_runtime_IHeap_Interface__BASE__C                         
0000efbc  xdc_runtime_ILogger_Interface__BASE__C                       
0000efc0  xdc_runtime_IModule_Interface__BASE__C                       
0000efc4  xdc_runtime_Log_L_error__C                                   
0000efc8  xdc_runtime_Memory_defaultHeapInstance__C                    
0000efcc  xdc_runtime_Startup_execImpl__C                              
0000efd0  xdc_runtime_Startup_lastFxns__A                              
0000efd4  xdc_runtime_Startup_maxPasses__C                             
0000efd8  xdc_runtime_Startup_sfxnRts__C                               
0000efdc  xdc_runtime_Startup_sfxnTab__C                               
0000efe0  xdc_runtime_System_Module__gateObj__C                        
0000efe4  xdc_runtime_System_abortFxn__C                               
0000efe8  xdc_runtime_System_exitFxn__C                                
0000efec  xdc_runtime_System_extendFxn__C                              
0000eff0  xdc_runtime_System_maxAtexitHandlers__C                      
0000eff4  xdc_runtime_Text_charTab__C                                  
0000eff8  xdc_runtime_Text_nameEmpty__C                                
0000effc  xdc_runtime_Text_nameStatic__C                               
0000f000  xdc_runtime_Text_nameUnknown__C                              
0000f004  xdc_runtime_Text_nodeTab__C                                  
0000f008  xdc_runtime_Text_visitRopeFxn__C                             
0000f00c  ti_sysbios_family_arm_m3_TimestampProvider_configTimer__C    
0000f00e  ti_sysbios_gates_GateMutex_Module__id__C                     
0000f010  ti_sysbios_hal_Hwi_Module__id__C                             
0000f012  ti_sysbios_heaps_HeapMem_Module__id__C                       
0000f014  ti_sysbios_knl_Clock_Module__id__C                           
0000f016  ti_sysbios_knl_Clock_Module__loggerDefined__C                
0000f018  ti_sysbios_knl_Semaphore_Module__id__C                       
0000f01a  ti_sysbios_knl_Semaphore_Module__loggerDefined__C            
0000f01c  ti_sysbios_knl_Swi_Module__id__C                             
0000f01e  ti_sysbios_knl_Swi_Module__loggerDefined__C                  
0000f020  ti_sysbios_knl_Task_Module__id__C                            
0000f022  ti_sysbios_knl_Task_Module__loggerDefined__C                 
0000f024  ti_sysbios_utils_Load_Module__id__C                          
0000f026  ti_sysbios_utils_Load_Module__loggerDefined__C               
0000f028  ti_sysbios_utils_Load_updateInIdle__C                        
0000f02a  ti_uia_loggers_LoggerStopMode_Module__id__C                  
0000f02c  ti_uia_loggers_LoggerStopMode_isTimestampEnabled__C          
0000f02e  xdc_runtime_Core_Module__id__C                               
0000f030  xdc_runtime_Error_Module__loggerDefined__C                   
0000f032  xdc_runtime_Error_maxDepth__C                                
0000f034  xdc_runtime_Memory_Module__id__C                             
0000f036  xdc_runtime_Text_charCnt__C                                  
0000f038  xdc_runtime_Text_isLoaded__C                                 
0000f03a  xdc_runtime_Text_registryModsLastId__C                       
0000f03c  xdc_runtime_Text_unnamedModsLastId__C                        
0000f040  __TI_static_base__                                           
0000f45c  __TI_Handler_Table_Base                                      
0000f468  __TI_Handler_Table_Limit                                     
0000f478  __TI_CINIT_Base                                              
0000f490  __TI_CINIT_Limit                                             
20000000  ti_sysbios_family_arm_m3_Hwi_ramVectors                      
20000200  channel_2                                                    
20006f60  ti_sysbios_knl_Task_Instance_State_0_stack__A                
20007360  ti_sysbios_knl_Task_Instance_State_1_stack__A                
20007b60  ti_sysbios_knl_Task_Instance_State_2_stack__A                
20007f60  ti_sysbios_knl_Task_Instance_State_3_stack__A                
20008160  ti_sysbios_knl_Task_Instance_State_4_stack__A                
20008560  ti_sysbios_knl_Task_Instance_State_5_stack__A                
20008960  ti_sysbios_knl_Task_Instance_State_6_stack__A                
20008b60  ti_sysbios_heaps_HeapMem_Instance_State_0_buf__A             
20009360  uartMSP432RingBuffer                                         
20009380  ti_uia_loggers_LoggerStopMode_Instance_State_1_packetArray__A
20009780  ti_uia_loggers_LoggerStopMode_Instance_State_2_packetArray__A
20009b80  ti_uia_loggers_LoggerStopMode_Instance_State_0_packetArray__A
20009d80  ti_sysbios_family_arm_m3_Hwi_dispatchTable                   
20009ec0  __CIOBUF_                                                    
20009fe0  AFE_REG_READ                                                 
2000a0b0  __TI_tmpnams                                                 
2000a150  uartMSP432Objects                                            
2000a280  spiMSP432DMAObjects                                          
2000a2f0  i2cMSP432Objects                                             
2000a338  uart_tx_buffer                                               
2000a360  i2c_transaction                                              
2000a37c  Led_1                                                        
2000a380  ti_uia_loggers_LoggerStopMode_Instance_State_0_hdr__A        
2000a3b0  uartParams                                                   
2000a3d4  masterTransaction                                            
2000a3e8  i2c_params                                                   
2000a3f8  parmbuf                                                      
2000a400  ti_uia_loggers_LoggerStopMode_Instance_State_1_hdr__A        
2000a430  ADS_REG_READ                                                 
2000a43c  masterRxBuffer                                               
2000a448  masterTxBuffer                                               
2000a454  read_data                                                    
2000a460  udmaMSP432Object                                             
2000a468  Led_1_amb                                                    
2000a46c  Led_2                                                        
2000a470  Led_2_amb                                                    
2000a474  ecg                                                          
2000a478  i2c_handle                                                   
2000a47c  i2c_rxBuffer                                                 
2000a480  ti_uia_loggers_LoggerStopMode_Instance_State_2_hdr__A        
2000a4b0  i2c_txBuffer                                                 
2000a4b4  leadoff_detect                                               
2000a4b8  masterSpi                                                    
2000a4bc  motion                                                       
2000a4c0  resp                                                         
2000a4c4  transferOK                                                   
2000a4c8  uart                                                         
2000a4cc  Tmp_1                                                        
2000a4ce  Tmp_2                                                        
2000a4d0  Tmp_3                                                        
2000a4d2  pace_detected                                                
2000a4d4  pace_height                                                  
2000a4d6  pace_rise_time                                               
2000a4d8  pace_width                                                   
2000a4da  patient_alarmed                                              
2000a4dc  ADS_read_done_flag                                           
2000a4dd  AFE_read_done_flag                                           
2000a4de  i2c_transfer_status                                          
2000a4df  tx_size                                                      
2000a4e0  ti_sysbios_knl_Task_Object__table__V                         
2000a6f4  _ftable                                                      
2000a7e4  ti_sysbios_knl_Semaphore_Object__table__V                    
2000a8d4  PowerMSP432_perfLevels                                       
2000a970  ti_uia_loggers_LoggerStopMode_Object__table__V               
2000aa0c  ti_sysbios_utils_Load_Module__state__V                       
2000aaa4  ti_sysbios_knl_Swi_Module_State_0_readyQ__A                  
2000ab24  ti_sysbios_knl_Task_Module_State_0_readyQ__A                 
2000aba4  _device                                                      
2000ac1c  ti_sysbios_knl_Clock_Object__table__V                        
2000ac7c  _stream                                                      
2000accc  ti_sysbios_family_arm_msp432_Timer_Object__table__V          
2000ad18  ti_sysbios_knl_Task_Module__state__V                         
2000ad5c  ti_sysbios_gates_GateMutex_Object__table__V                  
2000ad94  ti_sysbios_family_arm_m3_Hwi_Module__state__V                
2000adf8  ti_sysbios_family_arm_m3_Hwi_Object__table__V                
2000ae28  ti_sysbios_family_arm_m3_Timer_Object__table__V              
2000ae58  ti_sysbios_knl_Swi_Object__table__V                          
2000ae88  ti_sysbios_knl_Clock_Module__state__V                        
2000aeb4  PowerMSP432_module                                           
2000aedc  ti_sysbios_BIOS_Module__state__V                             
2000af00  ti_sysbios_family_arm_msp432_Timer_Module_State_0_device__A  
2000af20  ti_sysbios_knl_Swi_Module__state__V                          
2000af3c  ti_sysbios_heaps_HeapMem_Object__table__V                    
2000af54  gpioPinConfigs                                               
2000af68  __TI_ft_end                                                  
2000af6c  __aeabi_stdin                                                
2000af70  __aeabi_stdout                                               
2000af74  __aeabi_stderr                                               
2000af78  ti_sysbios_family_arm_msp432_Timer_Module_State_0_handles__A 
2000af88  __TI_cleanup_ptr                                             
2000af8c  __TI_dtors_ptr                                               
2000af90  __TI_enable_exit_profile_output                              
2000af94  ti_sysbios_family_arm_m3_Timer_Module__state__V              
2000afa0  ti_sysbios_family_arm_msp432_ClockFreqs_Module__state__V     
2000afac  ti_sysbios_family_arm_msp432_Timer_Module__state__V          
2000afb8  ti_sysbios_knl_Task_Module__root__V                          
2000afc4  ti_uia_runtime_QueueDescriptor_Module__state__V              
2000afd0  DELAY_COUNT                                                  
2000afd4  p2_24                                                        
2000afd8  respiration_valid                                            
2000afda  ti_sysbios_family_arm_m3_Hwi_Module_State_0_excActive__A     
2000afdc  _lock                                                        
2000afe0  _unlock                                                      
2000afec  gpioCallbackFunctions                                        
2000aff4  ti_uia_runtime_QueueDescriptor_gPtrToFirstDescriptor         
2000aff8  ti_uia_runtime_QueueDescriptor_gUpdateCount                  
2000affc  ti_sysbios_family_arm_m3_Hwi_Module__root__V                 
2000b004  ti_sysbios_gates_GateHwi_Module__root__V                     
2000b00c  ti_sysbios_gates_GateMutex_Module__root__V                   
2000b014  ti_sysbios_heaps_HeapMem_Module__root__V                     
2000b01c  ti_sysbios_knl_Clock_Module__root__V                         
2000b024  ti_sysbios_knl_Queue_Module__root__V                         
2000b02c  ti_sysbios_knl_Semaphore_Module__root__V                     
2000b034  ti_uia_loggers_LoggerStopMode_Module__root__V                
2000b03c  xdc_runtime_Registry_Module__state__V                        
2000b044  xdc_runtime_Startup_Module__state__V                         
2000b04c  xdc_runtime_System_Module_State_0_atexitHandlers__A          
2000b054  xdc_runtime_System_Module__state__V                          
2000b05c  DAC_Channel_voltage                                          
2000b062  DAC_Channel_write                                            
2000b068  p2_22                                                        
2000b06c  no_of_transmit                                               
2000b070  paceState                                                    
2000b072  paceDetectState                                              
2000b080  errno                                                        
2000b084  main_func_sp                                                 
2000b088  ti_sysbios_family_arm_m3_Hwi_Module_State_0_excContext__A    
2000b08c  ti_sysbios_family_arm_m3_Hwi_Module_State_0_excStack__A      
2000b090  ti_sysbios_family_arm_m3_TimestampProvider_Module__state__V  
2000b094  ti_sysbios_gates_GateHwi_Object__table__V                    
2000b098  ti_sysbios_knl_Task_Module_State_0_idleTask__A               
2000b09c  ti_sysbios_utils_Load_Module_State_0_runningTask__A          
2000b0a0  ti_sysbios_utils_Load_Module_State_0_taskStartTime__A        
2000b0a4  xdc_runtime_Memory_Module__state__V                          
2000b0a8  xdc_runtime_Error_Module__state__V                           
2000b0aa  currentSPIMode                                               
2000fc00  __stack                                                      
20010000  __STACK_END                                                  
4000480c  WDTCTL_SYM                                                   
e000e000  ti_sysbios_family_arm_m3_Hwi_nvic                            
ffffffff  __TI_pprof_out_hndl                                          
ffffffff  __TI_prof_data_size                                          
ffffffff  __TI_prof_data_start                                         
ffffffff  __binit__                                                    
ffffffff  __c_args__                                                   
ffffffff  binit                                                        
UNDEFED   SHT$$INIT_ARRAY$$Base                                        
UNDEFED   SHT$$INIT_ARRAY$$Limit                                       

[1067 symbols]
